(dp0
I1
(dp1
S'IPR-distance'
p2
F11.999845706659437
sI2
(dp3
S'efrac'
p4
F0.06073278718919275
sS'dfrac'
p5
F0.08322622154870868
sS'type'
p6
S'N'
p7
sS'PRE'
p8
F0.02239372149172812
ssI3
(dp9
S'efrac'
p10
F0.01635315285530711
sS'dfrac'
p11
F0.08354879475270152
sS'type'
p12
S'H'
p13
sS'PRE'
p14
F0.0016236141962930957
ssI4
(dp15
S'efrac'
p16
F0.01628037310379237
sS'dfrac'
p17
F0.08317696061311639
sS'type'
p18
g13
sS'PRE'
p19
F0.0016091945563346088
ssI5
(dp20
S'efrac'
p21
F0.01625438249218777
sS'dfrac'
p22
F0.08304417372525058
sS'type'
p23
g13
sS'PRE'
p24
F0.001604060697821103
ssI6
(dp25
S'efrac'
p26
F0.01628899381374425
sS'dfrac'
p27
F0.08322100410324729
sS'type'
p28
g13
sS'PRE'
p29
F0.0016108991944609149
ssI7
(dp30
S'efrac'
p31
F0.016307348280410788
sS'dfrac'
p32
F0.08331477767595749
sS'type'
p33
g13
sS'PRE'
p34
F0.001614531567840137
ssI8
(dp35
S'efrac'
p36
F0.016253508839006066
sS'dfrac'
p37
F0.08303971020246638
sS'type'
p38
g13
sS'PRE'
p39
F0.0016038882698532738
ssI9
(dp40
S'efrac'
p41
F0.23591219900073954
sS'dfrac'
p42
F0.08406429141206562
sS'type'
p43
S'Pb'
p44
sS'PRE'
p45
F0.3378941284969556
ssI10
(dp46
S'efrac'
p47
F0.18258012829894388
sS'dfrac'
p48
F0.08313401016351445
sS'type'
p49
S'I'
p50
sS'PRE'
p51
F0.20238898084200888
ssI11
(dp52
S'efrac'
p53
F0.18280307074468655
sS'dfrac'
p54
F0.08323552230354264
sS'type'
p55
g50
sS'PRE'
p56
F0.20288354334150216
ssI12
(dp57
S'efrac'
p58
F0.18401635464314625
sS'dfrac'
p59
F0.08378796553427928
sS'type'
p60
g50
sS'PRE'
p61
F0.2055856009741971
ssS'freq'
p62
F-0.0160114162
sI1
(dp63
S'efrac'
p64
F0.05621770073884278
sS'dfrac'
p65
F0.08320656796514987
sS'type'
p66
S'C'
p67
sS'PRE'
p68
F0.019187836371004987
ssS'IPR-energy'
p69
F6.07127420055014
sS'sumd'
p70
F0.48037886362703464
sS'sume'
p71
F2.4639955764063606
ssI2
(dp72
S'IPR-distance'
p73
F11.999925602650974
sI2
(dp74
S'efrac'
p75
F0.06109405985294646
sS'dfrac'
p76
F0.08337828902308042
sS'type'
p77
g7
sS'PRE'
p78
F0.02275096779339315
ssI3
(dp79
S'efrac'
p80
F0.016453262150582675
sS'dfrac'
p81
F0.0837158589580718
sS'type'
p82
g13
sS'PRE'
p83
F0.0016500835636700999
ssI4
(dp84
S'efrac'
p85
F0.016413537551361275
sS'dfrac'
p86
F0.08351373618660264
sS'type'
p87
g13
sS'PRE'
p88
F0.0016421252904328593
ssI5
(dp89
S'efrac'
p90
F0.016403851709427122
sS'dfrac'
p91
F0.0834644536449505
sS'type'
p92
g13
sS'PRE'
p93
F0.0016401877833028082
ssI6
(dp94
S'efrac'
p95
F0.0163832447962276
sS'dfrac'
p96
F0.08335960359009913
sS'type'
p97
g13
sS'PRE'
p98
F0.001636069484967628
ssI7
(dp99
S'efrac'
p100
F0.016387304399342384
sS'dfrac'
p101
F0.08338025926060828
sS'type'
p102
g13
sS'PRE'
p103
F0.0016368803885150624
ssI8
(dp104
S'efrac'
p105
F0.01636406816956998
sS'dfrac'
p106
F0.08326203097757597
sS'type'
p107
g13
sS'PRE'
p108
F0.0016322416801283816
ssI9
(dp109
S'efrac'
p110
F0.23372525222231536
sS'dfrac'
p111
F0.08294377970533677
sS'type'
p112
S'Pb'
p113
sS'PRE'
p114
F0.3329761885473861
ssI10
(dp115
S'efrac'
p116
F0.18352588353893176
sS'dfrac'
p117
F0.08322227294871606
sS'type'
p118
g50
sS'PRE'
p119
F0.2053035933172179
ssI11
(dp120
S'efrac'
p121
F0.18347614416936361
sS'dfrac'
p122
F0.08319971796458699
sS'type'
p123
g50
sS'PRE'
p124
F0.2051923252244991
ssI12
(dp125
S'efrac'
p126
F0.18310638389093423
sS'dfrac'
p127
F0.08303204520789642
sS'type'
p128
g50
sS'PRE'
p129
F0.20436610861643395
ssS'freq'
p130
F-0.0054501879
sI1
(dp131
S'efrac'
p132
F0.05666700754899744
sS'dfrac'
p133
F0.08352795253247484
sS'type'
p134
g67
sS'PRE'
p135
F0.019573228310053096
ssS'IPR-energy'
p136
F6.095395689105882
sS'sumd'
p137
F0.48331234840887816
sS'sume'
p138
F2.468885515593197
ssI3
(dp139
S'IPR-distance'
p140
F11.999914721800403
sI2
(dp141
S'efrac'
p142
F0.060953651830928594
sS'dfrac'
p143
F0.08343410523157889
sS'type'
p144
g7
sS'PRE'
p145
F0.022593915793551713
ssI3
(dp146
S'efrac'
p147
F0.01629788444059966
sS'dfrac'
p148
F0.08317194244212141
sS'type'
p149
g13
sS'PRE'
p150
F0.0016153049132847216
ssI4
(dp151
S'efrac'
p152
F0.016251377407479582
sS'dfrac'
p153
F0.08293460609973204
sS'type'
p154
g13
sS'PRE'
p155
F0.0016060993191196577
ssI5
(dp156
S'efrac'
p157
F0.01625720122937221
sS'dfrac'
p158
F0.08296432643435656
sS'type'
p159
g13
sS'PRE'
p160
F0.001607250644588283
ssI6
(dp161
S'efrac'
p162
F0.016378249980624524
sS'dfrac'
p163
F0.08358206671890345
sS'type'
p164
g13
sS'PRE'
p165
F0.0016312744599246791
ssI7
(dp166
S'efrac'
p167
F0.016378011265318217
sS'dfrac'
p168
F0.08358084849847805
sS'type'
p169
g13
sS'PRE'
p170
F0.001631226908159994
ssI8
(dp171
S'efrac'
p172
F0.016343165744069247
sS'dfrac'
p173
F0.08340302359744578
sS'type'
p174
g13
sS'PRE'
p175
F0.001624293162157753
ssI9
(dp176
S'efrac'
p177
F0.23438263149877
sS'dfrac'
p178
F0.08342447856868858
sS'type'
p179
S'Pb'
p180
sS'PRE'
p181
F0.33407416967635106
ssI10
(dp182
S'efrac'
p183
F0.18343238993651562
sS'dfrac'
p184
F0.08342729527401552
sS'type'
p185
g50
sS'PRE'
p186
F0.20461812221866443
ssI11
(dp187
S'efrac'
p188
F0.18332146698084087
sS'dfrac'
p189
F0.08337684615661074
sS'type'
p190
g50
sS'PRE'
p191
F0.2043707287846985
ssI12
(dp192
S'efrac'
p193
F0.18378620497738243
sS'dfrac'
p194
F0.08358821468359744
sS'type'
p195
g50
sS'PRE'
p196
F0.20540824212102457
ssS'freq'
p197
F0.001207105
sI1
(dp198
S'efrac'
p199
F0.056217764708099215
sS'dfrac'
p200
F0.08311224629447148
sS'type'
p201
g67
sS'PRE'
p202
F0.019219371998474743
ssS'IPR-energy'
p203
F6.081238632580337
sS'sumd'
p204
F0.48131907394346535
sS'sume'
p205
F2.4660167543186713
ssI4
(dp206
S'IPR-distance'
p207
F9.594390356691397
sI2
(dp208
S'efrac'
p209
F0.07570124003754629
sS'dfrac'
p210
F0.09719889721462718
sS'type'
p211
g7
sS'PRE'
p212
F0.0234617817870095
ssI3
(dp213
S'efrac'
p214
F0.01614792134460158
sS'dfrac'
p215
F0.0772995021307406
sS'type'
p216
g13
sS'PRE'
p217
F0.0010675500731766316
ssI4
(dp218
S'efrac'
p219
F0.011723089726234964
sS'dfrac'
p220
F0.056117996857528135
sS'type'
p221
g13
sS'PRE'
p222
F0.0005626511126221825
ssI5
(dp223
S'efrac'
p224
F0.011571044122423229
sS'dfrac'
p225
F0.0553901601765708
sS'type'
p226
g13
sS'PRE'
p227
F0.0005481508643502942
ssI6
(dp228
S'efrac'
p229
F0.02141104136478477
sS'dfrac'
p230
F0.10249386297338269
sS'type'
p231
g13
sS'PRE'
p232
F0.0018768544094230743
ssI7
(dp233
S'efrac'
p234
F0.02137364645532553
sS'dfrac'
p235
F0.10231485492511833
sS'type'
p236
g13
sS'PRE'
p237
F0.0018703041898634574
ssI8
(dp238
S'efrac'
p239
F0.02571430905063281
sS'dfrac'
p240
F0.12309344619853649
sS'type'
p241
g13
sS'PRE'
p242
F0.0027071026403384965
ssI9
(dp243
S'efrac'
p244
F0.08449179252693553
sS'dfrac'
p245
F0.02820960857130607
sS'type'
p246
S'Pb'
p247
sS'PRE'
p248
F0.0292269873689945
ssI10
(dp249
S'efrac'
p250
F0.21867909845614683
sS'dfrac'
p251
F0.09329403467602523
sS'type'
p252
g50
sS'PRE'
p253
F0.1957805541974039
ssI11
(dp254
S'efrac'
p255
F0.04469244201516236
sS'dfrac'
p256
F0.01906692621542406
sS'type'
p257
g50
sS'PRE'
p258
F0.008177549369186887
ssI12
(dp259
S'efrac'
p260
F0.4209505659566594
sS'dfrac'
p261
F0.17958815897134559
sS'type'
p262
g50
sS'PRE'
p263
F0.72546622732737
ssS'freq'
p264
F0.4254445413
sI1
(dp265
S'efrac'
p266
F0.04754380894354667
sS'dfrac'
p267
F0.06593255108939483
sS'type'
p268
g67
sS'PRE'
p269
F0.009254286660261039
ssS'IPR-energy'
p270
F4.094067549821357
sS'sumd'
p271
F0.42101744403905433
sS'sume'
p272
F2.023380228682041
ssI5
(dp273
S'IPR-distance'
p274
F11.448780354776373
sI2
(dp275
S'efrac'
p276
F0.061610999795491325
sS'dfrac'
p277
F0.08554654151092371
sS'type'
p278
g7
sS'PRE'
p279
F0.02173252655981571
ssI3
(dp280
S'efrac'
p281
F0.018525444741417894
sS'dfrac'
p282
F0.09589910862033975
sS'type'
p283
g13
sS'PRE'
p284
F0.0019648571976660137
ssI4
(dp285
S'efrac'
p286
F0.01271053269366652
sS'dfrac'
p287
F0.06579754345584532
sS'type'
p288
g13
sS'PRE'
p289
F0.0009249562906769476
ssI5
(dp290
S'efrac'
p291
F0.012518726748066115
sS'dfrac'
p292
F0.06480463778108783
sS'type'
p293
g13
sS'PRE'
p294
F0.0008972511554423441
ssI6
(dp295
S'efrac'
p296
F0.018537078822267565
sS'dfrac'
p297
F0.09595933378624932
sS'type'
p298
g13
sS'PRE'
p299
F0.0019673258547698064
ssI7
(dp300
S'efrac'
p301
F0.018469469239846333
sS'dfrac'
p302
F0.09560934495851048
sS'type'
p303
g13
sS'PRE'
p304
F0.0019530013196584412
ssI8
(dp305
S'efrac'
p306
F0.013994705498503575
sS'dfrac'
p307
F0.07244521259509264
sS'type'
p308
g13
sS'PRE'
p309
F0.001121298480656559
ssI9
(dp310
S'efrac'
p311
F0.1718646384278778
sS'dfrac'
p312
F0.06205187671295603
sS'type'
p313
S'Pb'
p314
sS'PRE'
p315
F0.169109016476977
ssI10
(dp316
S'efrac'
p317
F0.13231107936721773
sS'dfrac'
p318
F0.06104198798405692
sS'type'
p319
g50
sS'PRE'
p320
F0.10022732303457528
ssI11
(dp321
S'efrac'
p322
F0.2417201744362515
sS'dfrac'
p323
F0.11151809851456493
sS'type'
p324
g50
sS'PRE'
p325
F0.3345180097610791
ssI12
(dp326
S'efrac'
p327
F0.24768952291759544
sS'dfrac'
p328
F0.11427206968624239
sS'type'
p329
g50
sS'PRE'
p330
F0.35124405279146464
ssS'freq'
p331
F0.7471504243
sI1
(dp332
S'efrac'
p333
F0.05004762731179818
sS'dfrac'
p334
F0.0750542443941305
sS'type'
p335
g67
sS'PRE'
p336
F0.0143403810772182
ssS'IPR-energy'
p337
F5.725240124262396
sS'sumd'
p338
F0.46039816646096643
sS'sume'
p339
F2.3927474008474787
ssI6
(dp340
S'IPR-distance'
p341
F7.902622640488011
sI2
(dp342
S'efrac'
p343
F0.026291030874461514
sS'dfrac'
p344
F0.05503380315507727
sS'type'
p345
g7
sS'PRE'
p346
F0.0029150277527211334
ssI3
(dp347
S'efrac'
p348
F0.006251209745955325
sS'dfrac'
p349
F0.048785157262730236
sS'type'
p350
g13
sS'PRE'
p351
F0.0001647993921206482
ssI4
(dp352
S'efrac'
p353
F0.004541559672742645
sS'dfrac'
p354
F0.03544285216092428
sS'type'
p355
g13
sS'PRE'
p356
F8.698362710560031e-05
ssI5
(dp357
S'efrac'
p358
F0.0047982183741558555
sS'dfrac'
p359
F0.0374458460805241
sS'type'
p360
g13
sS'PRE'
p361
F9.709290212944116e-05
ssI6
(dp362
S'efrac'
p363
F0.007577560742297117
sS'dfrac'
p364
F0.05913615244154018
sS'type'
p365
g13
sS'PRE'
p366
F0.0002421510275423363
ssI7
(dp367
S'efrac'
p368
F0.00795149861200372
sS'dfrac'
p369
F0.062054406431006834
sS'type'
p370
g13
sS'PRE'
p371
F0.00026664008459179403
ssI8
(dp372
S'efrac'
p373
F0.006547488501974462
sS'dfrac'
p374
F0.05109735062903854
sS'type'
p375
g13
sS'PRE'
p376
F0.00018079106052678985
ssI9
(dp377
S'efrac'
p378
F0.19938505563070485
sS'dfrac'
p379
F0.1085272271142762
sS'type'
p380
S'Pb'
p381
sS'PRE'
p382
F0.16765351805632878
ssI10
(dp383
S'efrac'
p384
F0.13350954876858018
sS'dfrac'
p385
F0.09285867782160039
sS'type'
p386
g50
sS'PRE'
p387
F0.07517131016772392
ssI11
(dp388
S'efrac'
p389
F0.3542515286622425
sS'dfrac'
p390
F0.24638933223327708
sS'type'
p391
g50
sS'PRE'
p392
F0.5292378901994582
ssI12
(dp393
S'efrac'
p394
F0.22965490841960762
sS'dfrac'
p395
F0.15972978223490308
sS'type'
p396
g50
sS'PRE'
p397
F0.22242260740304776
ssS'freq'
p398
F0.8132665787
sI1
(dp399
S'efrac'
p400
F0.019240391995274237
sS'dfrac'
p401
F0.043499412435101935
sS'type'
p402
g67
sS'PRE'
p403
F0.0015611883267036455
ssS'IPR-energy'
p404
F4.217231711007448
sS'sumd'
p405
F0.2621034594588154
sS'sume'
p406
F2.053589956882207
ssI7
(dp407
S'IPR-distance'
p408
F11.08581064924208
sI2
(dp409
S'efrac'
p410
F0.08139239719294318
sS'dfrac'
p411
F0.09075059760987127
sS'type'
p412
g7
sS'PRE'
p413
F0.04119253582372355
ssI3
(dp414
S'efrac'
p415
F0.027911144776996
sS'dfrac'
p416
F0.11602325113821224
sS'type'
p417
g13
sS'PRE'
p418
F0.004844022455219883
ssI4
(dp419
S'efrac'
p420
F0.02242810970342785
sS'dfrac'
p421
F0.09323093787327809
sS'type'
p422
g13
sS'PRE'
p423
F0.0031277799561150164
ssI5
(dp424
S'efrac'
p425
F0.022257382308174502
sS'dfrac'
p426
F0.09252124475198491
sS'type'
p427
g13
sS'PRE'
p428
F0.003080342585647567
ssI6
(dp429
S'efrac'
p430
F0.024449819112046814
sS'dfrac'
p431
F0.1016349392253835
sS'type'
p432
g13
sS'PRE'
p433
F0.0037170820662814647
ssI7
(dp434
S'efrac'
p435
F0.024303131978831466
sS'dfrac'
p436
F0.10102517856412192
sS'type'
p437
g13
sS'PRE'
p438
F0.003672614457194586
ssI8
(dp439
S'efrac'
p440
F0.01627225541602851
sS'dfrac'
p441
F0.06764179655845008
sS'type'
p442
g13
sS'PRE'
p443
F0.0016464416874814555
ssI9
(dp444
S'efrac'
p445
F0.2461116654089891
sS'dfrac'
p446
F0.07135461140770655
sS'type'
p447
S'Pb'
p448
sS'PRE'
p449
F0.3766302922818291
ssI10
(dp450
S'efrac'
p451
F0.25186669581434534
sS'dfrac'
p452
F0.09330924069687786
sS'type'
p453
g50
sS'PRE'
p454
F0.3944503432936407
ssI11
(dp455
S'efrac'
p456
F0.10186435258674142
sS'dfrac'
p457
F0.03773776188716145
sS'type'
p458
g50
sS'PRE'
p459
F0.06452014094071991
ssI12
(dp460
S'efrac'
p461
F0.09999085235560773
sS'dfrac'
p462
F0.0370436848737346
sS'type'
p463
g50
sS'PRE'
p464
F0.0621686432737518
ssS'freq'
p465
F0.8836328605
sI1
(dp466
S'efrac'
p467
F0.081152193345868
sS'dfrac'
p468
F0.09772675541321744
sS'type'
p469
g67
sS'PRE'
p470
F0.04094976117839502
ssS'IPR-energy'
p471
F6.218001876743292
sS'sumd'
p472
F0.5975038428005586
sS'sume'
p473
F2.493592163274374
ssI8
(dp474
S'IPR-distance'
p475
F11.197695179927818
sI2
(dp476
S'efrac'
p477
F0.075611221839414
sS'dfrac'
p478
F0.09753238434392321
sS'type'
p479
g7
sS'PRE'
p480
F0.033260592399388146
ssI3
(dp481
S'efrac'
p482
F0.012733933007070696
sS'dfrac'
p483
F0.06123882841381279
sS'type'
p484
g13
sS'PRE'
p485
F0.0009433711472780935
ssI4
(dp486
S'efrac'
p487
F0.014814515339841959
sS'dfrac'
p488
F0.0712445685419132
sS'type'
p489
g13
sS'PRE'
p490
F0.0012768279000933494
ssI5
(dp491
S'efrac'
p492
F0.014704651120987632
sS'dfrac'
p493
F0.07071621991282101
sS'type'
p494
g13
sS'PRE'
p495
F0.0012579602492775958
ssI6
(dp496
S'efrac'
p497
F0.021330285709054042
sS'dfrac'
p498
F0.10257959625113894
sS'type'
p499
g13
sS'PRE'
p500
F0.002646980934590582
ssI7
(dp501
S'efrac'
p502
F0.021094487312273882
sS'dfrac'
p503
F0.10144561686294408
sS'type'
p504
g13
sS'PRE'
p505
F0.002588781623579021
ssI8
(dp506
S'efrac'
p507
F0.022978036443432912
sS'dfrac'
p508
F0.11050380351964993
sS'type'
p509
g13
sS'PRE'
p510
F0.003071731813748032
ssI9
(dp511
S'efrac'
p512
F0.16638581751376416
sS'dfrac'
p513
F0.05580885113071276
sS'type'
p514
S'Pb'
p515
sS'PRE'
p516
F0.16106088372918742
ssI10
(dp517
S'efrac'
p518
F0.29742053364327853
sS'dfrac'
p519
F0.12747405186316804
sS'type'
p520
g50
sS'PRE'
p521
F0.5146350544734064
ssI11
(dp522
S'efrac'
p523
F0.14689695225504795
sS'dfrac'
p524
F0.06295984167912372
sS'type'
p525
g50
sS'PRE'
p526
F0.12554026429574927
ssI12
(dp527
S'efrac'
p528
F0.15399481511934363
sS'dfrac'
p529
F0.06600197642280646
sS'type'
p530
g50
sS'PRE'
p531
F0.13796523511387257
ssS'freq'
p532
F0.9431839429
sI1
(dp533
S'efrac'
p534
F0.0520347506964907
sS'dfrac'
p535
F0.07249426105798562
sS'type'
p536
g67
sS'PRE'
p537
F0.015752316319829568
ssS'IPR-energy'
p538
F5.817782325250542
sS'sumd'
p539
F0.49957084042860667
sS'sume'
p540
F2.4120079446905964
ssI9
(dp541
S'IPR-distance'
p542
F9.974639154768287
sI2
(dp543
S'efrac'
p544
F0.04121889201236592
sS'dfrac'
p545
F0.05524488855257575
sS'type'
p546
g7
sS'PRE'
p547
F0.0091736455358962
ssI3
(dp548
S'efrac'
p549
F0.022884378795866057
sS'dfrac'
p550
F0.11435012496143533
sS'type'
p551
g13
sS'PRE'
p552
F0.0028276625754773007
ssI4
(dp553
S'efrac'
p554
F0.026243257211666125
sS'dfrac'
p555
F0.13113398306845064
sS'type'
p556
g13
sS'PRE'
p557
F0.0037186457000186962
ssI5
(dp558
S'efrac'
p559
F0.026025600144770063
sS'dfrac'
p560
F0.1300463803408293
sS'type'
p561
g13
sS'PRE'
p562
F0.0036572178794861995
ssI6
(dp563
S'efrac'
p564
F0.005364063388440662
sS'dfrac'
p565
F0.026803494394178357
sS'type'
p566
g13
sS'PRE'
p567
F0.00015535925535192788
ssI7
(dp568
S'efrac'
p569
F0.005118369733326885
sS'dfrac'
p570
F0.025575796652626926
sS'type'
p571
g13
sS'PRE'
p572
F0.00014145315465969522
ssI8
(dp573
S'efrac'
p574
F0.017309082903257843
sS'dfrac'
p575
F0.08649113050483712
sS'type'
p576
g13
sS'PRE'
p577
F0.0016176979839528033
ssI9
(dp578
S'efrac'
p579
F0.2631244619782676
sS'dfrac'
p580
F0.09170250632386595
sS'type'
p581
S'Pb'
p582
sS'PRE'
p583
F0.37382795807353203
ssI10
(dp584
S'efrac'
p585
F0.09815958306941626
sS'dfrac'
p586
F0.0437136177143334
sS'type'
p587
g50
sS'PRE'
p588
F0.05202531738600272
ssI11
(dp589
S'efrac'
p590
F0.2756883575869939
sS'dfrac'
p591
F0.12277288773046093
sS'type'
p592
g50
sS'PRE'
p593
F0.410379993628322
ssI12
(dp594
S'efrac'
p595
F0.14433364380808722
sS'dfrac'
p596
F0.06427641124231
sS'type'
p597
g50
sS'PRE'
p598
F0.11248237558337577
ssS'freq'
p599
F1.0116802102
sI1
(dp600
S'efrac'
p601
F0.07453030936754139
sS'dfrac'
p602
F0.1078887785140964
sS'type'
p603
g67
sS'PRE'
p604
F0.02999267324392472
ssS'IPR-energy'
p605
F5.399447567477985
sS'sumd'
p606
F0.463190675679201
sS'sume'
p607
F2.323671140131071
ssI10
(dp608
S'IPR-distance'
p609
F6.183586776108212
sI2
(dp610
S'efrac'
p611
F0.03422317583709183
sS'dfrac'
p612
F0.016884408734113385
sS'type'
p613
g7
sS'PRE'
p614
F0.008238528010261082
ssI3
(dp615
S'efrac'
p616
F0.11309948498170595
sS'dfrac'
p617
F0.20803092634006123
sS'type'
p618
g13
sS'PRE'
p619
F0.08997674122604832
ssI4
(dp620
S'efrac'
p621
F0.10878550958162901
sS'dfrac'
p622
F0.2000959627208069
sS'type'
p623
g13
sS'PRE'
p624
F0.08324364838831279
ssI5
(dp625
S'efrac'
p626
F0.10825293047608499
sS'dfrac'
p627
F0.1991163568040018
sS'type'
p628
g13
sS'PRE'
p629
F0.08243057492216319
ssI6
(dp630
S'efrac'
p631
F0.020244683230187074
sS'dfrac'
p632
F0.03723730666428889
sS'type'
p633
g13
sS'PRE'
p634
F0.002882909283875411
ssI7
(dp635
S'efrac'
p636
F0.021044314921626242
sS'dfrac'
p637
F0.03870811903384007
sS'type'
p638
g13
sS'PRE'
p639
F0.0031151473189796773
ssI8
(dp640
S'efrac'
p641
F0.05871840449439531
sS'dfrac'
p642
F0.1080044182531451
sS'type'
p643
g13
sS'PRE'
p644
F0.024252554989734842
ssI9
(dp645
S'efrac'
p646
F0.05528158615545698
sS'dfrac'
p647
F0.0070920246398627745
sS'type'
p648
S'Pb'
p649
sS'PRE'
p650
F0.021496610929497444
ssI10
(dp651
S'efrac'
p652
F0.08376136581399314
sS'dfrac'
p653
F0.013730854185270794
sS'type'
p654
g50
sS'PRE'
p655
F0.04935106235572526
ssI11
(dp656
S'efrac'
p657
F0.08319595344290068
sS'dfrac'
p658
F0.013638167124278268
sS'type'
p659
g50
sS'PRE'
p660
F0.0486870444743449
ssI12
(dp661
S'efrac'
p662
F0.0258392444762225
sS'dfrac'
p663
F0.0042357821498333675
sS'type'
p664
g50
sS'PRE'
p665
F0.0046964383665607885
ssS'freq'
p666
F1.7238210957
sI1
(dp667
S'efrac'
p668
F0.2875533465887061
sS'dfrac'
p669
F0.15322567335049744
sS'type'
p670
g67
sS'PRE'
p671
F0.5816287397344964
ssS'IPR-energy'
p672
F7.034107565629591
sS'sumd'
p673
F1.436216417068597
sS'sume'
p674
F2.652189202457019
ssI11
(dp675
S'IPR-distance'
p676
F6.1075733334324
sI2
(dp677
S'efrac'
p678
F0.06134042317060182
sS'dfrac'
p679
F0.03130396599862018
sS'type'
p680
g7
sS'PRE'
p681
F0.025737353542852205
ssI3
(dp682
S'efrac'
p683
F0.12152642415093214
sS'dfrac'
p684
F0.23121981110692982
sS'type'
p685
g13
sS'PRE'
p686
F0.10102102977582976
ssI4
(dp687
S'efrac'
p688
F0.1007264229692126
sS'dfrac'
p689
F0.19164510644608984
sS'type'
p690
g13
sS'PRE'
p691
F0.06939963329374471
ssI5
(dp692
S'efrac'
p693
F0.1013503751902693
sS'dfrac'
p694
F0.19283225661281658
sS'type'
p695
g13
sS'PRE'
p696
F0.07026209166085848
ssI6
(dp697
S'efrac'
p698
F0.03621346368058762
sS'dfrac'
p699
F0.06890081963864736
sS'type'
p700
g13
sS'PRE'
p701
F0.008970372622508513
ssI7
(dp702
S'efrac'
p703
F0.03528717520197053
sS'dfrac'
p704
F0.06713843546127397
sS'type'
p705
g13
sS'PRE'
p706
F0.008517343065666044
ssI8
(dp707
S'efrac'
p708
F0.009622151555559608
sS'dfrac'
p709
F0.018307393479755227
sS'type'
p710
g13
sS'PRE'
p711
F0.0006333076570879888
ssI9
(dp712
S'efrac'
p713
F0.047991007966270836
sS'dfrac'
p714
F0.006368492756242387
sS'type'
p715
S'Pb'
p716
sS'PRE'
p717
F0.015753972972729867
ssI10
(dp718
S'efrac'
p719
F0.12121645715530478
sS'dfrac'
p720
F0.02055428805493273
sS'type'
p721
g50
sS'PRE'
p722
F0.10050635568104654
ssI11
(dp723
S'efrac'
p724
F0.06790571975509707
sS'dfrac'
p725
F0.01151455633318449
sS'type'
p726
g50
sS'PRE'
p727
F0.031541552544289836
ssI12
(dp728
S'efrac'
p729
F0.008880809907027252
sS'dfrac'
p730
F0.0015058906131554931
sS'type'
p731
g50
sS'PRE'
p732
F0.0005394801891250963
ssS'freq'
p733
F1.9572640567
sI1
(dp734
S'efrac'
p735
F0.2879395692971664
sS'dfrac'
p736
F0.15870898349835158
sS'type'
p737
g67
sS'PRE'
p738
F0.5671175069942609
ssS'IPR-energy'
p739
F6.840224454182625
sS'sumd'
p740
F1.369189352953291
sS'sume'
p741
F2.615382276873241
ssI12
(dp742
S'IPR-distance'
p743
F9.699057639281929
sI2
(dp744
S'efrac'
p745
F0.026237502308478558
sS'dfrac'
p746
F0.03934433218557539
sS'type'
p747
g7
sS'PRE'
p748
F0.003420926768853204
ssI3
(dp749
S'efrac'
p750
F0.022854624778860518
sS'dfrac'
p751
F0.12777194660815425
sS'type'
p752
g13
sS'PRE'
p753
F0.002595655125297439
ssI4
(dp754
S'efrac'
p755
F0.020707676633342418
sS'dfrac'
p756
F0.11576913551526123
sS'type'
p757
g13
sS'PRE'
p758
F0.002130892529522015
ssI5
(dp759
S'efrac'
p760
F0.021117050830137842
sS'dfrac'
p761
F0.11805779868614305
sS'type'
p762
g13
sS'PRE'
p763
F0.002215977407971568
ssI6
(dp764
S'efrac'
p765
F0.006399088008322871
sS'dfrac'
p766
F0.03577498818079808
sS'type'
p767
g13
sS'PRE'
p768
F0.00020348620118819456
ssI7
(dp769
S'efrac'
p770
F0.006562549237969489
sS'dfrac'
p771
F0.03668884083464822
sS'type'
p772
g13
sS'PRE'
p773
F0.00021401486896795602
ssI8
(dp774
S'efrac'
p775
F0.006802305300249932
sS'dfrac'
p776
F0.03802923032190041
sS'type'
p777
g13
sS'PRE'
p778
F0.0002299381526117548
ssI9
(dp779
S'efrac'
p780
F0.2201049447840071
sS'dfrac'
p781
F0.08582497385865481
sS'type'
p782
S'Pb'
p783
sS'PRE'
p784
F0.24074562108337794
ssI10
(dp785
S'efrac'
p786
F0.2871739370452407
sS'dfrac'
p787
F0.14308462419765736
sS'type'
p788
g50
sS'PRE'
p789
F0.40981593602059624
ssI11
(dp790
S'efrac'
p791
F0.07947312287900984
sS'dfrac'
p792
F0.03959754160826212
sS'type'
p793
g50
sS'PRE'
p794
F0.03138624464048548
ssI12
(dp795
S'efrac'
p796
F0.2407645279642359
sS'dfrac'
p797
F0.11996110217502756
sS'type'
p798
g50
sS'PRE'
p799
F0.28806056122991924
ssS'freq'
p800
F1.9866527475
sI1
(dp801
S'efrac'
p802
F0.06180267023014472
sS'dfrac'
p803
F0.10009548582791766
sS'type'
p804
g67
sS'PRE'
p805
F0.018980745971208992
ssS'IPR-energy'
p806
F4.969340982044456
sS'sumd'
p807
F0.3971647013273431
sS'sume'
p808
F2.2292018710840096
ssI13
(dp809
S'IPR-distance'
p810
F10.808802901391234
sI2
(dp811
S'efrac'
p812
F0.10078540654407635
sS'dfrac'
p813
F0.10412057933892169
sS'type'
p814
g7
sS'PRE'
p815
F0.06571663128430158
ssI3
(dp816
S'efrac'
p817
F0.01976033339899364
sS'dfrac'
p818
F0.07610880781520277
sS'type'
p819
g13
sS'PRE'
p820
F0.0025262046165503765
ssI4
(dp821
S'efrac'
p822
F0.02400164566472009
sS'dfrac'
p823
F0.09244462632588014
sS'type'
p824
g13
sS'PRE'
p825
F0.0037270226224222357
ssI5
(dp826
S'efrac'
p827
F0.024294645555601662
sS'dfrac'
p828
F0.09357314333694011
sS'type'
p829
g13
sS'PRE'
p830
F0.0038185732296289253
ssI6
(dp831
S'efrac'
p832
F0.026979579621496674
sS'dfrac'
p833
F0.10391442284329203
sS'type'
p834
g13
sS'PRE'
p835
F0.0047092348128669895
ssI7
(dp836
S'efrac'
p837
F0.027068863393411333
sS'dfrac'
p838
F0.10425830780213666
sS'type'
p839
g13
sS'PRE'
p840
F0.004740455014664952
ssI8
(dp841
S'efrac'
p842
F0.031044846945641642
sS'dfrac'
p843
F0.11957218747931433
sS'type'
p844
g13
sS'PRE'
p845
F0.006235324140810975
ssI9
(dp846
S'efrac'
p847
F0.16490541669823433
sS'dfrac'
p848
F0.04429941970873466
sS'type'
p849
S'Pb'
p850
sS'PRE'
p851
F0.17593402212207115
ssI10
(dp852
S'efrac'
p853
F0.188459877342864
sS'dfrac'
p854
F0.06469133069651212
sS'type'
p855
g50
sS'PRE'
p856
F0.22978294811597136
ssI11
(dp857
S'efrac'
p858
F0.04999274230610116
sS'dfrac'
p859
F0.01716066608207394
sS'type'
p860
g50
sS'PRE'
p861
F0.016169400169966788
ssI12
(dp862
S'efrac'
p863
F0.26216948693205167
sS'dfrac'
p864
F0.08999312329382907
sS'type'
p865
g50
sS'PRE'
p866
F0.4446766008205749
ssS'freq'
p867
F2.1857811636
sI1
(dp868
S'efrac'
p869
F0.08053715559680749
sS'dfrac'
p870
F0.08986338527716249
sS'type'
p871
g67
sS'PRE'
p872
F0.04196358305016974
ssS'IPR-energy'
p873
F6.469638117797524
sS'sumd'
p874
F0.6577820271171484
sS'sume'
p875
F2.5435483321135424
ssI14
(dp876
S'IPR-distance'
p877
F8.55943640172224
sI2
(dp878
S'efrac'
p879
F0.004478412512965666
sS'dfrac'
p880
F0.005613178902384527
sS'type'
p881
g7
sS'PRE'
p882
F7.849159100843583e-05
ssI3
(dp883
S'efrac'
p884
F0.016850038901369366
sS'dfrac'
p885
F0.07873855218765319
sS'type'
p886
g13
sS'PRE'
p887
F0.0011111604086181117
ssI4
(dp888
S'efrac'
p889
F0.033620534032723554
sS'dfrac'
p890
F0.15710540426688502
sS'type'
p891
g13
sS'PRE'
p892
F0.004423684631828581
ssI5
(dp893
S'efrac'
p894
F0.03342699667633471
sS'dfrac'
p895
F0.1562010234921294
sS'type'
p896
g13
sS'PRE'
p897
F0.004372901142780319
ssI6
(dp898
S'efrac'
p899
F0.016424768403414527
sS'dfrac'
p900
F0.07675130554133446
sS'type'
p901
g13
sS'PRE'
p902
F0.001055780052011951
ssI7
(dp903
S'efrac'
p904
F0.016008412516928864
sS'dfrac'
p905
F0.07480571598580982
sS'type'
p906
g13
sS'PRE'
p907
F0.001002931974063617
ssI8
(dp908
S'efrac'
p909
F0.009422349547130776
sS'dfrac'
p910
F0.04402970022145018
sS'type'
p911
g13
sS'PRE'
p912
F0.0003474508401147397
ssI9
(dp913
S'efrac'
p914
F0.24949827849640516
sS'dfrac'
p915
F0.08131609885160754
sS'type'
p916
S'Pb'
p917
sS'PRE'
p918
F0.24361837942102899
ssI10
(dp919
S'efrac'
p920
F0.08853338184581655
sS'dfrac'
p921
F0.0368705911019874
sS'type'
p922
g50
sS'PRE'
p923
F0.030675316403547245
ssI11
(dp924
S'efrac'
p925
F0.4188483059061718
sS'dfrac'
p926
F0.17443346564713122
sS'type'
p927
g50
sS'PRE'
p928
F0.6865757650696922
ssI12
(dp929
S'efrac'
p930
F0.04127484195133507
sS'dfrac'
p931
F0.017189310841385662
sS'type'
p932
g50
sS'PRE'
p933
F0.006667235276600436
ssS'freq'
p934
F2.3261952917
sI1
(dp935
S'efrac'
p936
F0.07161367920940408
sS'dfrac'
p937
F0.09694565296024144
sS'type'
p938
g67
sS'PRE'
p939
F0.02007090318870536
ssS'IPR-energy'
p940
F3.9135865526457643
sS'sumd'
p941
F0.42168059331017416
sS'sume'
p942
F1.9782786842722018
ssI15
(dp943
S'IPR-distance'
p944
F8.44176414059119
sI2
(dp945
S'efrac'
p946
F0.21383828731011673
sS'dfrac'
p947
F0.12476783154106212
sS'type'
p948
g7
sS'PRE'
p949
F0.38479642852544044
ssI3
(dp950
S'efrac'
p951
F0.028614666570099777
sS'dfrac'
p952
F0.06224544510676523
sS'type'
p953
g13
sS'PRE'
p954
F0.006890289621749921
ssI4
(dp955
S'efrac'
p956
F0.05769242957786706
sS'dfrac'
p957
F0.1254982632618711
sS'type'
p958
g13
sS'PRE'
p959
F0.02800900976382996
ssI5
(dp960
S'efrac'
p961
F0.05804594578178782
sS'dfrac'
p962
F0.12626726657741189
sS'type'
p963
g13
sS'PRE'
p964
F0.028353317518838867
ssI6
(dp965
S'efrac'
p966
F0.054244786000026565
sS'dfrac'
p967
F0.1179986088959382
sS'type'
p968
g13
sS'PRE'
p969
F0.024761451443685148
ssI7
(dp970
S'efrac'
p971
F0.054369845216612755
sS'dfrac'
p972
F0.11827065003896677
sS'type'
p973
g13
sS'PRE'
p974
F0.024875756155615568
ssI8
(dp975
S'efrac'
p976
F0.07611333616513756
sS'dfrac'
p977
F0.16556923620107447
sS'type'
p978
g13
sS'PRE'
p979
F0.04875078509206267
ssI9
(dp980
S'efrac'
p981
F0.04793345492401151
sS'dfrac'
p982
F0.00727243896149216
sS'type'
p983
S'Pb'
p984
sS'PRE'
p985
F0.01933470560159402
ssI10
(dp986
S'efrac'
p987
F0.13363105176119336
sS'dfrac'
p988
F0.025906742170901928
sS'type'
p989
g50
sS'PRE'
p990
F0.15027089427086088
ssI11
(dp991
S'efrac'
p992
F0.052727016311707835
sS'dfrac'
p993
F0.010222064400641342
sS'type'
p994
g50
sS'PRE'
p995
F0.023395185364726675
ssI12
(dp996
S'efrac'
p997
F0.05595959112760124
sS'dfrac'
p998
F0.010848756185221168
sS'type'
p999
g50
sS'PRE'
p1000
F0.026351731877109732
ssS'freq'
p1001
F2.7276108775
sI1
(dp1002
S'efrac'
p1003
F0.16682958925383784
sS'dfrac'
p1004
F0.10513269665865344
sS'type'
p1005
g67
sS'PRE'
p1006
F0.23421044476448608
ssS'IPR-energy'
p1007
F8.415115820950584
sS'sumd'
p1008
F1.3282928088998611
sS'sume'
p1009
F2.900881903999295
ssI16
(dp1010
S'IPR-distance'
p1011
F6.7760833508266005
sI2
(dp1012
S'efrac'
p1013
F0.29051018008962537
sS'dfrac'
p1014
F0.13838477826035964
sS'type'
p1015
g7
sS'PRE'
p1016
F0.569069729836113
ssI3
(dp1017
S'efrac'
p1018
F0.08937558647182409
sS'dfrac'
p1019
F0.15872582703088328
sS'type'
p1020
g13
sS'PRE'
p1021
F0.053861765294504295
ssI4
(dp1022
S'efrac'
p1023
F0.01996543842254314
sS'dfrac'
p1024
F0.03545745377180131
sS'type'
p1025
g13
sS'PRE'
p1026
F0.0026878218281395612
ssI5
(dp1027
S'efrac'
p1028
F0.028659483570196497
sS'dfrac'
p1029
F0.050897570707315425
sS'type'
p1030
g13
sS'PRE'
p1031
F0.005538338481761678
ssI6
(dp1032
S'efrac'
p1033
F0.10720261328683568
sS'dfrac'
p1034
F0.190385586551527
sS'type'
p1035
g13
sS'PRE'
p1036
F0.07749140203022724
ssI7
(dp1037
S'efrac'
p1038
F0.10237985350911086
sS'dfrac'
p1039
F0.18182064656613203
sS'type'
p1040
g13
sS'PRE'
p1041
F0.07067597061449017
ssI8
(dp1042
S'efrac'
p1043
F0.09199045573750085
sS'dfrac'
p1044
F0.1633696822843873
sS'type'
p1045
g13
sS'PRE'
p1046
F0.057059546386844705
ssI9
(dp1047
S'efrac'
p1048
F0.00435991574635871
sS'dfrac'
p1049
F0.0005400441369764513
sS'type'
p1050
S'Pb'
p1051
sS'PRE'
p1052
F0.00012817371362040963
ssI10
(dp1053
S'efrac'
p1054
F0.041075122828572175
sS'dfrac'
p1055
F0.006501208492433416
sS'type'
p1056
g50
sS'PRE'
p1057
F0.011376286361448185
ssI11
(dp1058
S'efrac'
p1059
F0.10382351514979155
sS'dfrac'
p1060
F0.01643277662791538
sS'type'
p1061
g50
sS'PRE'
p1062
F0.07268323207793295
ssI12
(dp1063
S'efrac'
p1064
F0.012892579903257094
sS'dfrac'
p1065
F0.00204058671488932
sS'type'
p1066
g50
sS'PRE'
p1067
F0.0011207853285372777
ssS'freq'
p1068
F3.5206105476
sI1
(dp1069
S'efrac'
p1070
F0.107765255284384
sS'dfrac'
p1071
F0.05544383885537954
sS'type'
p1072
g67
sS'PRE'
p1073
F0.07830694804638026
ssS'IPR-energy'
p1074
F6.7428387488720745
sS'sumd'
p1075
F1.4563821677445792
sS'sume'
p1076
F2.596697662199438
ssI17
(dp1077
S'IPR-distance'
p1078
F6.208580594952587
sI2
(dp1079
S'efrac'
p1080
F0.11664819171908711
sS'dfrac'
p1081
F0.03824040214945819
sS'type'
p1082
g7
sS'PRE'
p1083
F0.10935627377661601
ssI3
(dp1084
S'efrac'
p1085
F0.1304511890267195
sS'dfrac'
p1086
F0.1594388706253936
sS'type'
p1087
g13
sS'PRE'
p1088
F0.13676777004833518
ssI4
(dp1089
S'efrac'
p1090
F0.1680839151199859
sS'dfrac'
p1091
F0.20543400023388042
sS'type'
p1092
g13
sS'PRE'
p1093
F0.22705966505312378
ssI5
(dp1094
S'efrac'
p1095
F0.16693037615360604
sS'dfrac'
p1096
F0.20402413228714733
sS'type'
p1097
g13
sS'PRE'
p1098
F0.22395379496992981
ssI6
(dp1099
S'efrac'
p1100
F0.1221715410682556
sS'dfrac'
p1101
F0.14931939429464935
sS'type'
p1102
g13
sS'PRE'
p1103
F0.11995760498916229
ssI7
(dp1104
S'efrac'
p1105
F0.12461625783898274
sS'dfrac'
p1106
F0.15230735388192346
sS'type'
p1107
g13
sS'PRE'
p1108
F0.12480646804182076
ssI8
(dp1109
S'efrac'
p1110
F0.055353583942501
sS'dfrac'
p1111
F0.06765375597345155
sS'type'
p1112
g13
sS'PRE'
p1113
F0.024625166313203016
ssI9
(dp1114
S'efrac'
p1115
F0.008000758674630902
sS'dfrac'
p1116
F0.0006820242289163335
sS'type'
p1117
S'Pb'
p1118
sS'PRE'
p1119
F0.0005144581174959188
ssI10
(dp1120
S'efrac'
p1121
F0.04077236691475499
sS'dfrac'
p1122
F0.004441182506472584
sS'type'
p1123
g50
sS'PRE'
p1124
F0.013360402121506392
ssI11
(dp1125
S'efrac'
p1126
F0.01893249164268221
sS'dfrac'
p1127
F0.0020622460026226783
sS'type'
p1128
g50
sS'PRE'
p1129
F0.002880734472555913
ssI12
(dp1130
S'efrac'
p1131
F0.0024995692223518653
sS'dfrac'
p1132
F0.0002722687924210027
sS'type'
p1133
g50
sS'PRE'
p1134
F5.0213213871273246e-05
ssS'freq'
p1135
F3.8215858264
sI1
(dp1136
S'efrac'
p1137
F0.04553975867644206
sS'dfrac'
p1138
F0.01612436902366323
sS'type'
p1139
g67
sS'PRE'
p1140
F0.016667448882379605
ssS'IPR-energy'
p1141
F8.036883668655886
sS'sumd'
p1142
F2.3103635986149063
sS'sume'
p1143
F2.834939799829242
ssI18
(dp1144
S'IPR-distance'
p1145
F7.077128123080428
sI2
(dp1146
S'efrac'
p1147
F0.2612925400586253
sS'dfrac'
p1148
F0.1020570322344884
sS'type'
p1149
g7
sS'PRE'
p1150
F0.4907927410892053
ssI3
(dp1151
S'efrac'
p1152
F0.1137132480334755
sS'dfrac'
p1153
F0.165587944990186
sS'type'
p1154
g13
sS'PRE'
p1155
F0.09295360521592749
ssI4
(dp1156
S'efrac'
p1157
F0.09127958710843205
sS'dfrac'
p1158
F0.1329203018138077
sS'type'
p1159
g13
sS'PRE'
p1160
F0.05989512053303153
ssI5
(dp1161
S'efrac'
p1162
F0.09109423286373171
sS'dfrac'
p1163
F0.13265039106017149
sS'type'
p1164
g13
sS'PRE'
p1165
F0.05965211892906054
ssI6
(dp1166
S'efrac'
p1167
F0.08526082347223322
sS'dfrac'
p1168
F0.12415584631600653
sS'type'
p1169
g13
sS'PRE'
p1170
F0.05225684131411562
ssI7
(dp1171
S'efrac'
p1172
F0.0864628685334893
sS'dfrac'
p1173
F0.12590625073168552
sS'type'
p1174
g13
sS'PRE'
p1175
F0.05374070865001482
ssI8
(dp1176
S'efrac'
p1177
F0.13152538498922592
sS'dfrac'
p1178
F0.19152577726033782
sS'type'
p1179
g13
sS'PRE'
p1180
F0.1243550059860696
ssI9
(dp1181
S'efrac'
p1182
F0.0016289735846025577
sS'dfrac'
p1183
F0.00016544519493280187
sS'type'
p1184
S'Pb'
p1185
sS'PRE'
p1186
F1.9075335848181957e-05
ssI10
(dp1187
S'efrac'
p1188
F0.09148238460352975
sS'dfrac'
p1189
F0.011872485763940186
sS'type'
p1190
g50
sS'PRE'
p1191
F0.06016155630329765
ssI11
(dp1192
S'efrac'
p1193
F0.014186086266212265
sS'dfrac'
p1194
F0.001841055061819344
sS'type'
p1195
g50
sS'PRE'
p1196
F0.001446669423211342
ssI12
(dp1197
S'efrac'
p1198
F0.007576998287214386
sS'dfrac'
p1199
F0.000983334711794133
sS'type'
p1200
g50
sS'PRE'
p1201
F0.00041270381882336403
ssS'freq'
p1202
F3.9908602832
sI1
(dp1203
S'efrac'
p1204
F0.024496872199228092
sS'dfrac'
p1205
F0.010334134860830055
sS'type'
p1206
g67
sS'PRE'
p1207
F0.004313853401394536
ssS'IPR-energy'
p1208
F7.188596537208844
sS'sumd'
p1209
F1.8339481907633506
sS'sume'
p1210
F2.6811558211355173
ssI19
(dp1211
S'IPR-distance'
p1212
F5.707384901965092
sI2
(dp1213
S'efrac'
p1214
F0.011727409493845039
sS'dfrac'
p1215
F0.0032371225807226634
sS'type'
p1216
g7
sS'PRE'
p1217
F0.0008299664216856492
ssI3
(dp1218
S'efrac'
p1219
F0.11891674864198382
sS'dfrac'
p1220
F0.12237756542482275
sS'type'
p1221
g13
sS'PRE'
p1222
F0.0853379871933588
ssI4
(dp1223
S'efrac'
p1224
F0.12098570078211784
sS'dfrac'
p1225
F0.1245067299771799
sS'type'
p1226
g13
sS'PRE'
p1227
F0.08833329507330208
ssI5
(dp1228
S'efrac'
p1229
F0.12104047883394109
sS'dfrac'
p1230
F0.1245631022266519
sS'type'
p1231
g13
sS'PRE'
p1232
F0.08841330157301276
ssI6
(dp1233
S'efrac'
p1234
F0.197556062881569
sS'dfrac'
p1235
F0.20330550815130566
sS'type'
p1236
g13
sS'PRE'
p1237
F0.23552502973155554
ssI7
(dp1238
S'efrac'
p1239
F0.19776002353539776
sS'dfrac'
p1240
F0.2035154046422799
sS'type'
p1241
g13
sS'PRE'
p1242
F0.23601160185642453
ssI8
(dp1243
S'efrac'
p1244
F0.20943351683649183
sS'dfrac'
p1245
F0.21552862991546495
sS'type'
p1246
g13
sS'PRE'
p1247
F0.26469681363812086
ssI9
(dp1248
S'efrac'
p1249
F0.00019223538690273895
sS'dfrac'
p1250
F1.3797950527794248e-05
sS'type'
p1251
S'Pb'
p1252
sS'PRE'
p1253
F2.230093205651401e-07
ssI10
(dp1254
S'efrac'
p1255
F0.003027067823267912
sS'dfrac'
p1256
F0.00027763068430717094
sS'type'
p1257
g50
sS'PRE'
p1258
F5.529688226838891e-05
ssI11
(dp1259
S'efrac'
p1260
F0.007965807728531312
sS'dfrac'
p1261
F0.0007305923685396606
sS'type'
p1262
g50
sS'PRE'
p1263
F0.00038292699313276923
ssI12
(dp1264
S'efrac'
p1265
F0.00704049590203214
sS'dfrac'
p1266
F0.0006457264287632771
sS'type'
p1267
g50
sS'PRE'
p1268
F0.00029913197778772953
ssS'freq'
p1269
F9.455282806
sI1
(dp1270
S'efrac'
p1271
F0.004354452153919677
sS'dfrac'
p1272
F0.0012981896494344213
sS'type'
p1273
g67
sS'PRE'
p1274
F0.00011442565003034108
ssS'IPR-energy'
p1275
F6.034709132683517
sS'sumd'
p1276
F2.377672573836231
sS'sume'
p1277
F2.4565644979693704
ssI20
(dp1278
S'IPR-distance'
p1279
F6.017639491105126
sI2
(dp1280
S'efrac'
p1281
F0.06653782932506438
sS'dfrac'
p1282
F0.0195870838435013
sS'type'
p1283
g7
sS'PRE'
p1284
F0.030621699979856837
ssI3
(dp1285
S'efrac'
p1286
F0.17394328648685317
sS'dfrac'
p1287
F0.19090203256945384
sS'type'
p1288
g13
sS'PRE'
p1289
F0.20927019668248184
ssI4
(dp1290
S'efrac'
p1291
F0.11454271121930479
sS'dfrac'
p1292
F0.12571014857439733
sS'type'
p1293
g13
sS'PRE'
p1294
F0.09074588844885748
ssI5
(dp1295
S'efrac'
p1296
F0.11417545611645864
sS'dfrac'
p1297
F0.12530708762837953
sS'type'
p1298
g13
sS'PRE'
p1299
F0.09016490930665484
ssI6
(dp1300
S'efrac'
p1301
F0.12743198005118445
sS'dfrac'
p1302
F0.13985606744276313
sS'type'
p1303
g13
sS'PRE'
p1304
F0.11231788121688044
ssI7
(dp1305
S'efrac'
p1306
F0.12760842922049667
sS'dfrac'
p1307
F0.14004971967129823
sS'type'
p1308
g13
sS'PRE'
p1309
F0.11262913931144092
ssI8
(dp1310
S'efrac'
p1311
F0.2201855905558105
sS'dfrac'
p1312
F0.24165276871888203
sS'type'
p1313
g13
sS'PRE'
p1314
F0.3353280075207257
ssI9
(dp1315
S'efrac'
p1316
F0.000377820086840176
sS'dfrac'
p1317
F2.892080580182135e-05
sS'type'
p1318
S'Pb'
p1319
sS'PRE'
p1320
F9.873295305109405e-07
ssI10
(dp1321
S'efrac'
p1322
F0.0012524591816625988
sS'dfrac'
p1323
F0.0001225047677004868
sS'type'
p1324
g50
sS'PRE'
p1325
F1.0849736763749792e-05
ssI11
(dp1326
S'efrac'
p1327
F0.0009671192068731055
sS'dfrac'
p1328
F9.45952694597159e-05
sS'type'
p1329
g50
sS'PRE'
p1330
F6.4692220260646395e-06
ssI12
(dp1331
S'efrac'
p1332
F0.0007026515848168605
sS'dfrac'
p1333
F6.872732495609351e-05
sS'type'
p1334
g50
sS'PRE'
p1335
F3.4148536821634304e-06
ssS'freq'
p1336
F26.2552338496
sI1
(dp1337
S'efrac'
p1338
F0.05227466696463469
sS'dfrac'
p1339
F0.01662034338340636
sS'type'
p1340
g67
sS'PRE'
p1341
F0.01890055639109949
ssS'IPR-energy'
p1342
F6.916590115970472
sS'sumd'
p1343
F2.3868536913550327
sS'sume'
p1344
F2.6299410860265344
ssI21
(dp1345
S'IPR-distance'
p1346
F5.966339828894903
sI2
(dp1347
S'efrac'
p1348
F0.05762485618069478
sS'dfrac'
p1349
F0.016981986968593425
sS'type'
p1350
g7
sS'PRE'
p1351
F0.02277816495854103
ssI3
(dp1352
S'efrac'
p1353
F0.08171047265584491
sS'dfrac'
p1354
F0.08977555504808346
sS'type'
p1355
g13
sS'PRE'
p1356
F0.045798839145729964
ssI4
(dp1357
S'efrac'
p1358
F0.16765564235260963
sS'dfrac'
p1359
F0.18420378514444738
sS'type'
p1360
g13
sS'PRE'
p1361
F0.19281258299760906
ssI5
(dp1362
S'efrac'
p1363
F0.1671258156691741
sS'dfrac'
p1364
F0.1836216628896288
sS'type'
p1365
g13
sS'PRE'
p1366
F0.1915958529088723
ssI6
(dp1367
S'efrac'
p1368
F0.18322235053798017
sS'dfrac'
p1369
F0.201306976720628
sS'type'
p1370
g13
sS'PRE'
p1371
F0.23027984342471047
ssI7
(dp1372
S'efrac'
p1373
F0.18198460260547292
sS'dfrac'
p1374
F0.1999470591477793
sS'type'
p1375
g13
sS'PRE'
p1376
F0.22717906829685722
ssI8
(dp1377
S'efrac'
p1378
F0.09406688662410456
sS'dfrac'
p1379
F0.1033515862023354
sS'type'
p1380
g13
sS'PRE'
p1381
F0.060697746179739304
ssI9
(dp1382
S'efrac'
p1383
F0.0001077684189787373
sS'dfrac'
p1384
F8.258370300060586e-06
sS'type'
p1385
S'Pb'
p1386
sS'PRE'
p1387
F7.966765755505198e-08
ssI10
(dp1388
S'efrac'
p1389
F0.0001664910705977261
sS'dfrac'
p1390
F1.63026367320012e-05
sS'type'
p1391
g50
sS'PRE'
p1392
F1.90143251748091e-07
ssI11
(dp1393
S'efrac'
p1394
F0.0004385573952444711
sS'dfrac'
p1395
F4.294309523709035e-05
sS'type'
p1396
g50
sS'PRE'
p1397
F1.3193253351305656e-06
ssI12
(dp1398
S'efrac'
p1399
F0.0010458914504304462
sS'dfrac'
p1400
F0.00010241262979605276
sS'type'
p1401
g50
sS'PRE'
p1402
F7.503644504956441e-06
ssS'freq'
p1403
F27.2476110396
sI1
(dp1404
S'efrac'
p1405
F0.06485066503886734
sS'dfrac'
p1406
F0.020641471146439116
sS'type'
p1407
g67
sS'PRE'
p1408
F0.028848809307191362
ssS'IPR-energy'
p1409
F6.859603681904031
sS'sumd'
p1410
F2.374388586366011
sS'sume'
p1411
F2.619084512172922
ssI22
(dp1412
S'IPR-distance'
p1413
F7.929649156034922
sI2
(dp1414
S'efrac'
p1415
F0.27699500599709703
sS'dfrac'
p1416
F0.1271765691061681
sS'type'
p1417
g7
sS'PRE'
p1418
F0.3935700241180334
ssI3
(dp1419
S'efrac'
p1420
F0.07959360488529177
sS'dfrac'
p1421
F0.1362432728560372
sS'type'
p1422
g13
sS'PRE'
p1423
F0.03249634260414033
ssI4
(dp1424
S'efrac'
p1425
F0.06299216066455623
sS'dfrac'
p1426
F0.10782597603891664
sS'type'
p1427
g13
sS'PRE'
p1428
F0.02035406445125982
ssI5
(dp1429
S'efrac'
p1430
F0.06437346866173795
sS'dfrac'
p1431
F0.11019041125490509
sS'type'
p1432
g13
sS'PRE'
p1433
F0.021256509792184124
ssI6
(dp1434
S'efrac'
p1435
F0.07132731386474414
sS'dfrac'
p1436
F0.12209356139815099
sS'type'
p1437
g13
sS'PRE'
p1438
F0.026096957201467583
ssI7
(dp1439
S'efrac'
p1440
F0.07581584358774379
sS'dfrac'
p1441
F0.1297767412296764
sS'type'
p1442
g13
sS'PRE'
p1443
F0.02948479267847927
ssI8
(dp1444
S'efrac'
p1445
F0.06959824851801326
sS'dfrac'
p1446
F0.11913385725910518
sS'type'
p1447
g13
sS'PRE'
p1448
F0.024847045543867012
ssI9
(dp1449
S'efrac'
p1450
F0.00012256154269901312
sS'dfrac'
p1451
F1.4632333010067155e-05
sS'type'
p1452
S'Pb'
p1453
sS'PRE'
p1454
F7.705247137419702e-08
ssI10
(dp1455
S'efrac'
p1456
F0.0011324371233654717
sS'dfrac'
p1457
F0.00017275774238622416
sS'type'
p1458
g50
sS'PRE'
p1459
F6.578188753437587e-06
ssI11
(dp1460
S'efrac'
p1461
F0.0008589856160637602
sS'dfrac'
p1462
F0.00013104163817272097
sS'type'
p1463
g50
sS'PRE'
p1464
F3.784860857004258e-06
ssI12
(dp1465
S'efrac'
p1466
F0.000383487048837791
sS'dfrac'
p1467
F5.8502459363645805e-05
sS'type'
p1468
g50
sS'PRE'
p1469
F7.54361539415863e-07
ssS'freq'
p1470
F30.155912365
sI1
(dp1471
S'efrac'
p1472
F0.29680688248985004
sS'dfrac'
p1473
F0.14718267668410764
sS'type'
p1474
g67
sS'PRE'
p1475
F0.45188306914694704
ssS'IPR-energy'
p1476
F5.129536625841935
sS'sumd'
p1477
F1.3179072113992112
sS'sume'
p1478
F2.2648480359268963
ssI23
(dp1479
S'IPR-distance'
p1480
F6.833249300541065
sI2
(dp1481
S'efrac'
p1482
F0.1328108873851039
sS'dfrac'
p1483
F0.045077826882712564
sS'type'
p1484
g7
sS'PRE'
p1485
F0.13534368182830875
ssI3
(dp1486
S'efrac'
p1487
F0.15350358214707316
sS'dfrac'
p1488
F0.19424485969257185
sS'type'
p1489
g13
sS'PRE'
p1490
F0.1808038437029176
ssI4
(dp1491
S'efrac'
p1492
F0.12156676894728119
sS'dfrac'
p1493
F0.15383171941107812
sS'type'
p1494
g13
sS'PRE'
p1495
F0.11339668995014658
ssI5
(dp1496
S'efrac'
p1497
F0.12140675073808345
sS'dfrac'
p1498
F0.15362923088176098
sS'type'
p1499
g13
sS'PRE'
p1500
F0.11309835854038079
ssI6
(dp1501
S'efrac'
p1502
F0.08413329788514275
sS'dfrac'
p1503
F0.10646305717813832
sS'type'
p1504
g13
sS'PRE'
p1505
F0.054313333106917105
ssI7
(dp1506
S'efrac'
p1507
F0.08422232665873637
sS'dfrac'
p1508
F0.10657571501578232
sS'type'
p1509
g13
sS'PRE'
p1510
F0.05442834126571037
ssI8
(dp1511
S'efrac'
p1512
F0.1442332163580504
sS'dfrac'
p1513
F0.18251405265340936
sS'type'
p1514
g13
sS'PRE'
p1515
F0.1596251087778678
ssI9
(dp1516
S'efrac'
p1517
F7.071834593193845e-05
sS'dfrac'
p1518
F6.241451198946698e-06
sS'type'
p1519
S'Pb'
p1520
sS'PRE'
p1521
F3.8373800914202566e-08
ssI10
(dp1522
S'efrac'
p1523
F0.00048464695266085323
sS'dfrac'
p1524
F5.46566533106861e-05
sS'type'
p1525
g50
sS'PRE'
p1526
F1.80227725715739e-06
ssI11
(dp1527
S'efrac'
p1528
F0.000495807238001301
sS'dfrac'
p1529
F5.5915268150524025e-05
sS'type'
p1530
g50
sS'PRE'
p1531
F1.8862374128772136e-06
ssI12
(dp1532
S'efrac'
p1533
F0.00013317198351783203
sS'dfrac'
p1534
F1.5018633448262017e-05
sS'type'
p1535
g50
sS'PRE'
p1536
F1.3608064729231065e-07
ssS'freq'
p1537
F36.4313229454
sI1
(dp1538
S'efrac'
p1539
F0.15693882536041692
sS'dfrac'
p1540
F0.05753170627843811
sS'type'
p1541
g67
sS'PRE'
p1542
F0.18898677985863252
ssS'IPR-energy'
p1543
F7.673095962986414
sS'sumd'
p1544
F2.18040392092088
sS'sume'
p1545
F2.7700353721543833
ssI24
(dp1546
S'IPR-distance'
p1547
F6.94927021291176
sI2
(dp1548
S'efrac'
p1549
F0.1338488948158974
sS'dfrac'
p1550
F0.04515618580061064
sS'type'
p1551
g7
sS'PRE'
p1552
F0.13974228586389859
ssI3
(dp1553
S'efrac'
p1554
F0.10443137213539744
sS'dfrac'
p1555
F0.13135154135926325
sS'type'
p1556
g13
sS'PRE'
p1557
F0.08506682671551306
ssI4
(dp1558
S'efrac'
p1559
F0.13464078967826199
sS'dfrac'
p1560
F0.16934829919824063
sS'type'
p1561
g13
sS'PRE'
p1562
F0.14140070153819256
ssI5
(dp1563
S'efrac'
p1564
F0.13513402344243042
sS'dfrac'
p1565
F0.1699686780542223
sS'type'
p1566
g13
sS'PRE'
p1567
F0.14243859425087513
ssI6
(dp1568
S'efrac'
p1569
F0.1304297587026172
sS'dfrac'
p1570
F0.16405175470157915
sS'type'
p1571
g13
sS'PRE'
p1572
F0.13269410987881547
ssI7
(dp1573
S'efrac'
p1574
F0.13012812476284458
sS'dfrac'
p1575
F0.16367236599773224
sS'type'
p1576
g13
sS'PRE'
p1577
F0.1320810785236415
ssI8
(dp1578
S'efrac'
p1579
F0.08088378242674271
sS'dfrac'
p1580
F0.10173388777220543
sS'type'
p1581
g13
sS'PRE'
p1582
F0.05102948301029752
ssI9
(dp1583
S'efrac'
p1584
F1.6238381667341777e-05
sS'dfrac'
p1585
F1.4245227804307841e-06
sS'type'
p1586
S'Pb'
p1587
sS'PRE'
p1588
F2.05676064431079e-09
ssI10
(dp1589
S'efrac'
p1590
F0.00016193749085369652
sS'dfrac'
p1591
F1.8152570166195106e-05
sS'type'
p1592
g50
sS'PRE'
p1593
F2.0454698171997554e-07
ssI11
(dp1594
S'efrac'
p1595
F0.00015093225550107746
sS'dfrac'
p1596
F1.691892559210204e-05
sS'type'
p1597
g50
sS'PRE'
p1598
F1.77689754802048e-07
ssI12
(dp1599
S'efrac'
p1600
F0.0001549724676307568
sS'dfrac'
p1601
F1.7371817839497524e-05
sS'type'
p1602
g50
sS'PRE'
p1603
F1.8733001185943326e-07
ssS'freq'
p1604
F36.9846889257
sI1
(dp1605
S'efrac'
p1606
F0.1500191734401553
sS'dfrac'
p1607
F0.054663419279768165
sS'type'
p1608
g67
sS'PRE'
p1609
F0.17554634859525742
ssS'IPR-energy'
p1610
F7.800065755537756
sS'sumd'
p1611
F2.2117070513074086
sS'sume'
p1612
F2.7928597808586395
ssI25
(dp1613
S'IPR-distance'
p1614
F3.6261935886009327
sI2
(dp1615
S'efrac'
p1616
F0.01932516953341986
sS'dfrac'
p1617
F0.006050219656933818
sS'type'
p1618
g7
sS'PRE'
p1619
F0.0016051002359579556
ssI3
(dp1620
S'efrac'
p1621
F0.28109562084482387
sS'dfrac'
p1622
F0.3280980407419091
sS'type'
p1623
g13
sS'PRE'
p1624
F0.33959688127676524
ssI4
(dp1625
S'efrac'
p1626
F0.24463599132977315
sS'dfrac'
p1627
F0.2855419419520681
sS'type'
p1628
g13
sS'PRE'
p1629
F0.2572149674965027
ssI5
(dp1630
S'efrac'
p1631
F0.2459709648152561
sS'dfrac'
p1632
F0.2871001383541072
sS'type'
p1633
g13
sS'PRE'
p1634
F0.2600298603938359
ssI6
(dp1635
S'efrac'
p1636
F0.0067797900700359405
sS'dfrac'
p1637
F0.007913448925083829
sS'type'
p1638
g13
sS'PRE'
p1639
F0.00019755500032975592
ssI7
(dp1640
S'efrac'
p1641
F0.006523416694129843
sS'dfrac'
p1642
F0.007614206972895557
sS'type'
p1643
g13
sS'PRE'
p1644
F0.000182896660130426
ssI8
(dp1645
S'efrac'
p1646
F0.014136607097334886
sS'dfrac'
p1647
F0.016500410349452627
sS'type'
p1648
g13
sS'PRE'
p1649
F0.0008589065386275993
ssI9
(dp1650
S'efrac'
p1651
F0.00013766748051246509
sS'dfrac'
p1652
F1.1207361644839527e-05
sS'type'
p1653
S'Pb'
p1654
sS'PRE'
p1655
F8.145509644504668e-08
ssI10
(dp1656
S'efrac'
p1657
F7.885958436507407e-05
sS'dfrac'
p1658
F8.203337320989006e-06
sS'type'
p1659
g50
sS'PRE'
p1660
F2.672787927798436e-08
ssI11
(dp1661
S'efrac'
p1662
F0.0002693818975458694
sS'dfrac'
p1663
F2.802234619328749e-05
sS'type'
p1664
g50
sS'PRE'
p1665
F3.1188346396619426e-07
ssI12
(dp1666
S'efrac'
p1667
F0.0003620071113465735
sS'dfrac'
p1668
F3.765764771501886e-05
sS'type'
p1669
g50
sS'PRE'
p1670
F5.632351336238005e-07
ssS'freq'
p1671
F41.3306485205
sI1
(dp1672
S'efrac'
p1673
F0.18068452354145634
sS'dfrac'
p1674
F0.061096502354675654
sS'type'
p1675
g67
sS'PRE'
p1676
F0.1403128490962771
ssS'IPR-energy'
p1677
F4.297892350765946
sS'sumd'
p1678
F1.7691345717014657
sS'sume'
p1679
F2.073135873686505
ssI26
(dp1680
S'IPR-distance'
p1681
F3.8429160129268407
sI2
(dp1682
S'efrac'
p1683
F0.052068177400638585
sS'dfrac'
p1684
F0.01520066688631944
sS'type'
p1685
g7
sS'PRE'
p1686
F0.012023896022055214
ssI3
(dp1687
S'efrac'
p1688
F0.316247478749918
sS'dfrac'
p1689
F0.34420649832903677
sS'type'
p1690
g13
sS'PRE'
p1691
F0.4435622766939842
ssI4
(dp1692
S'efrac'
p1693
F0.24218114930121842
sS'dfrac'
p1694
F0.2635920630633507
sS'type'
p1695
g13
sS'PRE'
p1696
F0.2601244242674923
ssI5
(dp1697
S'efrac'
p1698
F0.24061267511801313
sS'dfrac'
p1699
F0.2618849221607429
sS'type'
p1700
g13
sS'PRE'
p1701
F0.2567659692082874
ssI6
(dp1702
S'efrac'
p1703
F0.028391725082528928
sS'dfrac'
p1704
F0.030901799789227573
sS'type'
p1705
g13
sS'PRE'
p1706
F0.003575065659411834
ssI7
(dp1707
S'efrac'
p1708
F0.028629292103099016
sS'dfrac'
p1709
F0.031160369794566826
sS'type'
p1710
g13
sS'PRE'
p1711
F0.003635144503964648
ssI8
(dp1712
S'efrac'
p1713
F0.03131452635992196
sS'dfrac'
p1714
F0.03408300204570043
sS'type'
p1715
g13
sS'PRE'
p1716
F0.00434902750993771
ssI9
(dp1717
S'efrac'
p1718
F3.5409062835691165e-05
sS'dfrac'
p1719
F2.687997686436049e-06
sS'type'
p1720
S'Pb'
p1721
sS'PRE'
p1722
F5.560698205214424e-09
ssI10
(dp1723
S'efrac'
p1724
F0.00016546831111896438
sS'dfrac'
p1725
F1.605067705811632e-05
sS'type'
p1726
g50
sS'PRE'
p1727
F1.21431155799436e-07
ssI11
(dp1728
S'efrac'
p1729
F0.0001890320741389098
sS'dfrac'
p1730
F1.833639779793343e-05
sS'type'
p1731
g50
sS'PRE'
p1732
F1.584789041624786e-07
ssI12
(dp1733
S'efrac'
p1734
F0.00016970461607398635
sS'dfrac'
p1735
F1.6461605061750015e-05
sS'type'
p1736
g50
sS'PRE'
p1737
F1.2772848806071274e-07
ssS'freq'
p1738
F42.5179448953
sI1
(dp1739
S'efrac'
p1740
F0.05999536182049456
sS'dfrac'
p1741
F0.01891714125345107
sS'type'
p1742
g67
sS'PRE'
p1743
F0.015963782935620376
ssS'IPR-energy'
p1744
F4.435069810610584
sS'sumd'
p1745
F1.9272626127543493
sS'sume'
p1746
F2.105960543460059
ssI27
(dp1747
S'IPR-distance'
p1748
F3.938439053663717
sI2
(dp1749
S'efrac'
p1750
F0.05274742950368912
sS'dfrac'
p1751
F0.015450774975929484
sS'type'
p1752
g7
sS'PRE'
p1753
F0.012693606437228154
ssI3
(dp1754
S'efrac'
p1755
F0.17588018580073894
sS'dfrac'
p1756
F0.19207357078757994
sS'type'
p1757
g13
sS'PRE'
p1758
F0.14112899851831393
ssI4
(dp1759
S'efrac'
p1760
F0.2975775144588611
sS'dfrac'
p1761
F0.32497563911469335
sS'type'
p1762
g13
sS'PRE'
p1763
F0.4040011972717933
ssI5
(dp1764
S'efrac'
p1765
F0.2978137514978901
sS'dfrac'
p1766
F0.32523362662722644
sS'type'
p1767
g13
sS'PRE'
p1768
F0.40464289851151436
ssI6
(dp1769
S'efrac'
p1770
F0.03575297505573446
sS'dfrac'
p1771
F0.039044771040976124
sS'type'
p1772
g13
sS'PRE'
p1773
F0.005831856109613767
ssI7
(dp1774
S'efrac'
p1775
F0.03568791394228928
sS'dfrac'
p1776
F0.038973719715200354
sS'type'
p1777
g13
sS'PRE'
p1778
F0.005810650499614074
ssI8
(dp1779
S'efrac'
p1780
F0.040354807195844083
sS'dfrac'
p1781
F0.04407029638535629
sS'type'
p1782
g13
sS'PRE'
p1783
F0.007429729145744804
ssI9
(dp1784
S'efrac'
p1785
F0.0001401695115342683
sS'dfrac'
p1786
F1.0676446279559718e-05
sS'type'
p1787
S'Pb'
p1788
sS'PRE'
p1789
F8.963746130439057e-08
ssI10
(dp1790
S'efrac'
p1791
F0.0002429538991065209
sS'dfrac'
p1792
F2.364618576521324e-05
sS'type'
p1793
g50
sS'PRE'
p1794
F2.692961688158682e-07
ssI11
(dp1795
S'efrac'
p1796
F0.00010499069173843622
sS'dfrac'
p1797
F1.0218520507780845e-05
sS'type'
p1798
g50
sS'PRE'
p1799
F5.0290276387117414e-08
ssI12
(dp1800
S'efrac'
p1801
F8.635130433376374e-05
sS'dfrac'
p1802
F8.404388613863724e-06
sS'type'
p1803
g50
sS'PRE'
p1804
F3.401889729982312e-08
ssS'freq'
p1805
F42.7287708019
sI1
(dp1806
S'efrac'
p1807
F0.06361095713824008
sS'dfrac'
p1808
F0.020124655811871787
sS'type'
p1809
g67
sS'PRE'
p1810
F0.018460620263373837
ssS'IPR-energy'
p1811
F4.5622851746039075
sS'sumd'
p1812
F1.9481535280016284
sS'sume'
p1813
F2.1359506489158204
ssI28
(dp1814
S'IPR-distance'
p1815
F3.9480785049719382
sI2
(dp1816
S'efrac'
p1817
F0.17957610305051794
sS'dfrac'
p1818
F0.05570184000328285
sS'type'
p1819
g7
sS'PRE'
p1820
F0.147028524497584
ssI3
(dp1821
S'efrac'
p1822
F0.020078302860835198
sS'dfrac'
p1823
F0.02321933230210113
sS'type'
p1824
g13
sS'PRE'
p1825
F0.0018380550525135951
ssI4
(dp1826
S'efrac'
p1827
F0.02500207158411955
sS'dfrac'
p1828
F0.028913370436551105
sS'type'
p1829
g13
sS'PRE'
p1830
F0.0028500763994574766
ssI5
(dp1831
S'efrac'
p1832
F0.024945580649473505
sS'dfrac'
p1833
F0.028848042117086345
sS'type'
p1834
g13
sS'PRE'
p1835
F0.002837211738270663
ssI6
(dp1836
S'efrac'
p1837
F0.2461020587758238
sS'dfrac'
p1838
F0.2846020165426162
sS'type'
p1839
g13
sS'PRE'
p1840
F0.27614361568982077
ssI7
(dp1841
S'efrac'
p1842
F0.24653625324434636
sS'dfrac'
p1843
F0.2851041359557079
sS'type'
p1844
g13
sS'PRE'
p1845
F0.27711886798988217
ssI8
(dp1846
S'efrac'
p1847
F0.25313619318688724
sS'dfrac'
p1848
F0.2927365638437586
sS'type'
p1849
g13
sS'PRE'
p1850
F0.2921547842611071
ssI9
(dp1851
S'efrac'
p1852
F0.00019204103281643837
sS'dfrac'
p1853
F1.5489565083885016e-05
sS'type'
p1854
S'Pb'
p1855
sS'PRE'
p1856
F1.6814833810145328e-07
ssI10
(dp1857
S'efrac'
p1858
F0.0010126297553802812
sS'dfrac'
p1859
F0.00010436621657970259
sS'type'
p1860
g50
sS'PRE'
p1861
F4.6752612364303626e-06
ssI11
(dp1862
S'efrac'
p1863
F0.0014899830865517493
sS'dfrac'
p1864
F0.00015356441649569733
sS'type'
p1865
g50
sS'PRE'
p1866
F1.0122019986004604e-05
ssI12
(dp1867
S'efrac'
p1868
F0.0001935686120568814
sS'dfrac'
p1869
F1.995005931992812e-05
sS'type'
p1870
g50
sS'PRE'
p1871
F1.7083402975220155e-07
ssS'freq'
p1872
F43.8901588631
sI1
(dp1873
S'efrac'
p1874
F0.0017352141611911055
sS'dfrac'
p1875
F0.0005813285414167566
sS'type'
p1876
g67
sS'PRE'
p1877
F1.3728107773974601e-05
ssS'IPR-energy'
p1878
F4.559366598910494
sS'sumd'
p1879
F1.839128990539026
sS'sume'
p1880
F2.1352673366373853
ssI29
(dp1881
S'IPR-distance'
p1882
F3.623266814259436
sI2
(dp1883
S'efrac'
p1884
F0.07747486641203125
sS'dfrac'
p1885
F0.022501273925013263
sS'type'
p1886
g7
sS'PRE'
p1887
F0.024853632740865567
ssI3
(dp1888
S'efrac'
p1889
F0.03131159453007106
sS'dfrac'
p1890
F0.033904175112402665
sS'type'
p1891
g13
sS'PRE'
p1892
F0.004059556341946804
ssI4
(dp1893
S'efrac'
p1894
F0.032329966231432715
sS'dfrac'
p1895
F0.03500686735821985
sS'type'
p1896
g13
sS'PRE'
p1897
F0.004327914837697622
ssI5
(dp1898
S'efrac'
p1899
F0.0323148736445801
sS'dfrac'
p1900
F0.03499052511454845
sS'type'
p1901
g13
sS'PRE'
p1902
F0.004323874982933301
ssI6
(dp1903
S'efrac'
p1904
F0.32251616329350624
sS'dfrac'
p1905
F0.34922030132901294
sS'type'
p1906
g13
sS'PRE'
p1907
F0.4306963326876687
ssI7
(dp1908
S'efrac'
p1909
F0.3223455624415161
sS'dfrac'
p1910
F0.34903557483242253
sS'type'
p1911
g13
sS'PRE'
p1912
F0.43024080371815615
ssI8
(dp1913
S'efrac'
p1914
F0.15467487680105604
sS'dfrac'
p1915
F0.16748186054581013
sS'type'
p1916
g13
sS'PRE'
p1917
F0.09906215284307995
ssI9
(dp1918
S'efrac'
p1919
F8.26623423521168e-05
sS'dfrac'
p1920
F6.242782009925702e-06
sS'type'
p1921
S'Pb'
p1922
sS'PRE'
p1923
F2.8293300963490968e-08
ssI10
(dp1924
S'efrac'
p1925
F0.0014268421352642271
sS'dfrac'
p1926
F0.0001376925531827892
sS'type'
p1927
g50
sS'PRE'
p1928
F8.429854057072312e-06
ssI11
(dp1929
S'efrac'
p1930
F0.0011228152808077162
sS'dfrac'
p1931
F0.00010835347439360201
sS'type'
p1932
g50
sS'PRE'
p1933
F5.220172246321517e-06
ssI12
(dp1934
S'efrac'
p1935
F0.0002150831328070131
sS'dfrac'
p1936
F2.0755867079343228e-05
sS'type'
p1937
g50
sS'PRE'
p1938
F1.9154945099705096e-07
ssS'freq'
p1939
F46.2193888727
sI1
(dp1940
S'efrac'
p1941
F0.024184693754575264
sS'dfrac'
p1942
F0.007586377105904651
sS'type'
p1943
g67
sS'PRE'
p1944
F0.0024218619785965644
ssS'IPR-energy'
p1945
F4.140646970911699
sS'sumd'
p1946
F1.8718401737239134
sS'sume'
p1947
F2.034857973154803
ssI30
(dp1948
S'IPR-distance'
p1949
F3.629506122866671
sI2
(dp1950
S'efrac'
p1951
F0.07645474194268011
sS'dfrac'
p1952
F0.022226133810092343
sS'type'
p1953
g7
sS'PRE'
p1954
F0.024286939960612562
ssI3
(dp1955
S'efrac'
p1956
F0.010255831507541379
sS'dfrac'
p1957
F0.011115579330021335
sS'type'
p1958
g13
sS'PRE'
p1959
F0.0004370244149875409
ssI4
(dp1960
S'efrac'
p1961
F0.02916629468333676
sS'dfrac'
p1962
F0.03161130933918097
sS'type'
p1963
g13
sS'PRE'
p1964
F0.0035344876169630356
ssI5
(dp1965
S'efrac'
p1966
F0.02909853818859732
sS'dfrac'
p1967
F0.03153787280779426
sS'type'
p1968
g13
sS'PRE'
p1969
F0.003518084688865385
ssI6
(dp1970
S'efrac'
p1971
F0.24596739743047427
sS'dfrac'
p1972
F0.2665868795452509
sS'type'
p1973
g13
sS'PRE'
p1974
F0.2513732368648516
ssI7
(dp1975
S'efrac'
p1976
F0.2457259283931331
sS'dfrac'
p1977
F0.2663251681239648
sS'type'
p1978
g13
sS'PRE'
p1979
F0.2508799271029091
ssI8
(dp1980
S'efrac'
p1981
F0.3337337114620629
sS'dfrac'
p1982
F0.36171065623798654
sS'type'
p1983
g13
sS'PRE'
p1984
F0.4627688332549018
ssI9
(dp1985
S'efrac'
p1986
F9.705381479772626e-05
sS'dfrac'
p1987
F7.336624646097448e-06
sS'type'
p1988
S'Pb'
p1989
sS'PRE'
p1990
F3.913714727404737e-08
ssI10
(dp1991
S'efrac'
p1992
F0.0006904900561760806
sS'dfrac'
p1993
F6.66968284730715e-05
sS'type'
p1994
g50
sS'PRE'
p1995
F1.9809741250049126e-06
ssI11
(dp1996
S'efrac'
p1997
F0.00023723586515491592
sS'dfrac'
p1998
F2.2915434718241886e-05
sS'type'
p1999
g50
sS'PRE'
p2000
F2.3384314195906777e-07
ssI12
(dp2001
S'efrac'
p2002
F0.0008368977271757394
sS'dfrac'
p2003
F8.083885301414032e-05
sS'type'
p2004
g50
sS'PRE'
p2005
F2.910105424574799e-06
ssS'freq'
p2006
F46.7209972518
sI1
(dp2007
S'efrac'
p2008
F0.027735878928869837
sS'dfrac'
p2009
F0.008708613064857368
sS'type'
p2010
g67
sS'PRE'
p2011
F0.003196302036070287
ssS'IPR-energy'
p2012
F4.154932240900767
sS'sumd'
p2013
F1.8732830663805027
sS'sume'
p2014
F2.038365090188889
ssI31
(dp2015
S'IPR-distance'
p2016
F3.60615832423024
sI2
(dp2017
S'efrac'
p2018
F0.007145247721575411
sS'dfrac'
p2019
F0.002043540171564338
sS'type'
p2020
g7
sS'PRE'
p2021
F0.00020438261008169008
ssI3
(dp2022
S'efrac'
p2023
F0.26769323704611325
sS'dfrac'
p2024
F0.28543354810661264
sS'type'
p2025
g13
sS'PRE'
p2026
F0.2868693567321373
ssI4
(dp2027
S'efrac'
p2028
F0.29221957553891836
sS'dfrac'
p2029
F0.3115852727273553
sS'type'
p2030
g13
sS'PRE'
p2031
F0.341844008138706
ssI5
(dp2032
S'efrac'
p2033
F0.29156365707617526
sS'dfrac'
p2034
F0.31088588586142135
sS'type'
p2035
g13
sS'PRE'
p2036
F0.3403111186951489
ssI6
(dp2037
S'efrac'
p2038
F0.02203601026061572
sS'dfrac'
p2039
F0.02349635972954286
sS'type'
p2040
g13
sS'PRE'
p2041
F0.0019439061449568278
ssI7
(dp2042
S'efrac'
p2043
F0.02451610972881105
sS'dfrac'
p2044
F0.026140817985850513
sS'type'
p2045
g13
sS'PRE'
p2046
F0.0024060933554097483
ssI8
(dp2047
S'efrac'
p2048
F0.014741559311110552
sS'dfrac'
p2049
F0.01571849787923303
sS'type'
p2050
g13
sS'PRE'
p2051
F0.0008699538391734989
ssI9
(dp2052
S'efrac'
p2053
F2.4131950493762673e-05
sS'dfrac'
p2054
F1.794661338402346e-06
sS'type'
p2055
S'Pb'
p2056
sS'PRE'
p2057
F2.3312787884081468e-09
ssI10
(dp2058
S'efrac'
p2059
F3.497523028158335e-05
sS'dfrac'
p2060
F3.323645750855467e-06
sS'type'
p2061
g50
sS'PRE'
p2062
F4.897004758625921e-09
ssI11
(dp2063
S'efrac'
p2064
F6.74566387494331e-05
sS'dfrac'
p2065
F6.410307207172328e-06
sS'type'
p2066
g50
sS'PRE'
p2067
F1.821624066063652e-08
ssI12
(dp2068
S'efrac'
p2069
F6.656485702413693e-05
sS'dfrac'
p2070
F6.325562474454102e-06
sS'type'
p2071
g50
sS'PRE'
p2072
F1.773778423683606e-08
ssS'freq'
p2073
F89.1060801311
sI1
(dp2074
S'efrac'
p2075
F0.0798914746401316
sS'dfrac'
p2076
F0.0246782233616491
sS'type'
p2077
g67
sS'PRE'
p2078
F0.025551137302077316
ssS'IPR-energy'
p2079
F4.003219106282995
sS'sumd'
p2080
F1.8690448522827718
sS'sume'
p2081
F2.0008046147195366
ssI32
(dp2082
S'IPR-distance'
p2083
F3.5495945671243665
sI2
(dp2084
S'efrac'
p2085
F0.04043320394765165
sS'dfrac'
p2086
F0.01251738678399234
sS'type'
p2087
g7
sS'PRE'
p2088
F0.007031130724113227
ssI3
(dp2089
S'efrac'
p2090
F0.00797990002552771
sS'dfrac'
p2091
F0.009210319448761484
sS'type'
p2092
g13
sS'PRE'
p2093
F0.00027386955776101336
ssI4
(dp2094
S'efrac'
p2095
F0.3096674115746377
sS'dfrac'
p2096
F0.3574149769232105
sS'type'
p2097
g13
sS'PRE'
p2098
F0.4124201421700421
ssI5
(dp2099
S'efrac'
p2100
F0.3120252922500355
sS'dfrac'
p2101
F0.3601364188175955
sS'type'
p2102
g13
sS'PRE'
p2103
F0.4187245812618312
ssI6
(dp2104
S'efrac'
p2105
F0.091673275471044
sS'dfrac'
p2106
F0.10580836217265638
sS'type'
p2107
g13
sS'PRE'
p2108
F0.036143845526153066
ssI7
(dp2109
S'efrac'
p2110
F0.08854566919323277
sS'dfrac'
p2111
F0.10219851081656896
sS'type'
p2112
g13
sS'PRE'
p2113
F0.03371968498359235
ssI8
(dp2114
S'efrac'
p2115
F0.003353313038654917
sS'dfrac'
p2116
F0.003870359803870655
sS'type'
p2117
g13
sS'PRE'
p2118
F4.8361198472408376e-05
ssI9
(dp2119
S'efrac'
p2120
F6.950927524153945e-07
sS'dfrac'
p2121
F5.595545969160813e-08
sS'type'
p2122
S'Pb'
p2123
sS'PRE'
p2124
F2.077946587906948e-12
ssI10
(dp2125
S'efrac'
p2126
F0.0003309839627541011
sS'dfrac'
p2127
F3.404636286396375e-05
sS'type'
p2128
g50
sS'PRE'
p2129
F4.711538695438667e-07
ssI11
(dp2130
S'efrac'
p2131
F2.436106213128128e-06
sS'dfrac'
p2132
F2.5058783941425027e-07
sS'type'
p2133
g50
sS'PRE'
p2134
F2.552356289615182e-11
ssI12
(dp2135
S'efrac'
p2136
F1.7969004841862866e-05
sS'dfrac'
p2137
F1.8483652623522903e-06
sS'type'
p2138
g50
sS'PRE'
p2139
F1.3886631500222675e-09
ssS'freq'
p2140
F91.9654297993
sI1
(dp2141
S'efrac'
p2142
F0.1459698503326542
sS'dfrac'
p2143
F0.04880746396191891
sS'type'
p2144
g67
sS'PRE'
p2145
F0.09163791200790034
ssS'IPR-energy'
p2146
F4.300796163913307
sS'sumd'
p2147
F1.7896983865898175
sS'sume'
p2148
F2.073836098613692
ssI33
(dp2149
S'IPR-distance'
p2150
F3.8424193297693234
sI2
(dp2151
S'efrac'
p2152
F0.02113896334443862
sS'dfrac'
p2153
F0.0064326252815824336
sS'type'
p2154
g7
sS'PRE'
p2155
F0.002014190528205772
ssI3
(dp2156
S'efrac'
p2157
F0.37239923387817514
sS'dfrac'
p2158
F0.42248867681803
sS'type'
p2159
g13
sS'PRE'
p2160
F0.6251017801945714
ssI4
(dp2161
S'efrac'
p2162
F0.16684200673111235
sS'dfrac'
p2163
F0.18928303887046097
sS'type'
p2164
g13
sS'PRE'
p2165
F0.12547118150569858
ssI5
(dp2166
S'efrac'
p2167
F0.1638756012663475
sS'dfrac'
p2168
F0.1859176379627774
sS'type'
p2169
g13
sS'PRE'
p2170
F0.12104915838801049
ssI6
(dp2171
S'efrac'
p2172
F0.05830167054532248
sS'dfrac'
p2173
F0.06614351857939625
sS'type'
p2174
g13
sS'PRE'
p2175
F0.015321284462189345
ssI7
(dp2176
S'efrac'
p2177
F0.05872349346245883
sS'dfrac'
p2178
F0.06662207865659223
sS'type'
p2179
g13
sS'PRE'
p2180
F0.015543790913421644
ssI8
(dp2181
S'efrac'
p2182
F0.013633070847782305
sS'dfrac'
p2183
F0.015466782795074822
sS'type'
p2184
g13
sS'PRE'
p2185
F0.0008377618147171041
ssI9
(dp2186
S'efrac'
p2187
F1.7334325947115134e-05
sS'dfrac'
p2188
F1.3716260298544134e-06
sS'type'
p2189
S'Pb'
p2190
sS'PRE'
p2191
F1.3544004680375287e-09
ssI10
(dp2192
S'efrac'
p2193
F6.398593289274751e-05
sS'dfrac'
p2194
F6.469598514487815e-06
sS'type'
p2195
g50
sS'PRE'
p2196
F1.845449606201568e-08
ssI11
(dp2197
S'efrac'
p2198
F6.46989554392085e-05
sS'dfrac'
p2199
F6.541692010649113e-06
sS'type'
p2200
g50
sS'PRE'
p2201
F1.8868080311233574e-08
ssI12
(dp2202
S'efrac'
p2203
F2.321207408933628e-05
sS'dfrac'
p2204
F2.346965860422306e-06
sS'type'
p2205
g50
sS'PRE'
p2206
F2.4286284274561338e-09
ssS'freq'
p2207
F92.1662375923
sI1
(dp2208
S'efrac'
p2209
F0.14491672863599409
sS'dfrac'
p2210
F0.04762891115367046
sS'type'
p2211
g67
sS'PRE'
p2212
F0.09466081108758055
ssS'IPR-energy'
p2213
F4.50747345714566
sS'sumd'
p2214
F1.8639873203339945
sS'sume'
p2215
F2.1230811235432423
ssI34
(dp2216
S'IPR-distance'
p2217
F3.6473532263266897
sI2
(dp2218
S'efrac'
p2219
F0.09346672399871044
sS'dfrac'
p2220
F0.027505109430537567
sS'type'
p2221
g7
sS'PRE'
p2222
F0.03692674084074391
ssI3
(dp2223
S'efrac'
p2224
F0.05008930781984014
sS'dfrac'
p2225
F0.054954481401167786
sS'type'
p2226
g13
sS'PRE'
p2227
F0.010605154430262326
ssI4
(dp2228
S'efrac'
p2229
F0.0475972782174833
sS'dfrac'
p2230
F0.05222040100767443
sS'type'
p2231
g13
sS'PRE'
p2232
F0.009576155162953839
ssI5
(dp2233
S'efrac'
p2234
F0.053844755426195406
sS'dfrac'
p2235
F0.059074695567009484
sS'type'
p2236
g13
sS'PRE'
p2237
F0.012255012365812532
ssI6
(dp2238
S'efrac'
p2239
F0.33322306800866375
sS'dfrac'
p2240
F0.36558901870208804
sS'type'
p2241
g13
sS'PRE'
p2242
F0.46935025030076655
ssI7
(dp2243
S'efrac'
p2244
F0.3211166401038901
sS'dfrac'
p2245
F0.3523066936693604
sS'type'
p2246
g13
sS'PRE'
p2247
F0.4358655641610324
ssI8
(dp2248
S'efrac'
p2249
F0.07249569084865116
sS'dfrac'
p2250
F0.07953719601669124
sS'type'
p2251
g13
sS'PRE'
p2252
F0.0222152559961424
ssI9
(dp2253
S'efrac'
p2254
F5.47901813407989e-05
sS'dfrac'
p2255
F4.192598611085262e-06
sS'type'
p2256
S'Pb'
p2257
sS'PRE'
p2258
F1.2689146520798398e-08
ssI10
(dp2259
S'efrac'
p2260
F0.00044659753023178265
sS'dfrac'
p2261
F4.36677615135659e-05
sS'type'
p2262
g50
sS'PRE'
p2263
F8.430621088886186e-07
ssI11
(dp2264
S'efrac'
p2265
F9.139055297298553e-05
sS'dfrac'
p2266
F8.936056743856196e-06
sS'type'
p2267
g50
sS'PRE'
p2268
F3.5304457853448295e-08
ssI12
(dp2269
S'efrac'
p2270
F3.790714445506625e-05
sS'dfrac'
p2271
F3.7065143259189526e-06
sS'type'
p2272
g50
sS'PRE'
p2273
F6.073920133293529e-09
ssS'freq'
p2274
F92.6270269177
sI1
(dp2275
S'efrac'
p2276
F0.02753585016756533
sS'dfrac'
p2277
F0.008751901274276719
sS'type'
p2278
g67
sS'PRE'
p2279
F0.0032049696126527595
ssS'IPR-energy'
p2280
F4.226948305132313
sS'sumd'
p2281
F1.8665431938596122
sS'sume'
p2282
F2.0559543538542657
ssI35
(dp2283
S'IPR-distance'
p2284
F3.5109723891890003
sI2
(dp2285
S'efrac'
p2286
F0.13736866758195904
sS'dfrac'
p2287
F0.04237263686144923
sS'type'
p2288
g7
sS'PRE'
p2289
F0.08051171238435076
ssI3
(dp2290
S'efrac'
p2291
F0.0017356596447126828
sS'dfrac'
p2292
F0.0019960163695264856
sS'type'
p2293
g13
sS'PRE'
p2294
F1.2853246126848066e-05
ssI4
(dp2295
S'efrac'
p2296
F0.09233395931766275
sS'dfrac'
p2297
F0.10618446699655568
sS'type'
p2298
g13
sS'PRE'
p2299
F0.036375302147056435
ssI5
(dp2300
S'efrac'
p2301
F0.08861375654795156
sS'dfrac'
p2302
F0.10190621713983881
sS'type'
p2303
g13
sS'PRE'
p2304
F0.033503176671799084
ssI6
(dp2305
S'efrac'
p2306
F0.3073496949866622
sS'dfrac'
p2307
F0.3534535265777315
sS'type'
p2308
g13
sS'PRE'
p2309
F0.40304103460161056
ssI7
(dp2310
S'efrac'
p2311
F0.32081741001186087
sS'dfrac'
p2312
F0.368941459210321
sS'type'
p2313
g13
sS'PRE'
p2314
F0.43913651284922034
ssI8
(dp2315
S'efrac'
p2316
F0.01003052325377828
sS'dfrac'
p2317
F0.011535146692179823
sS'type'
p2318
g13
sS'PRE'
p2319
F0.0004292703279836982
ssI9
(dp2320
S'efrac'
p2321
F1.682831469551339e-05
sS'dfrac'
p2322
F1.349778860911952e-06
sS'type'
p2323
S'Pb'
p2324
sS'PRE'
p2325
F1.2082726409628018e-09
ssI10
(dp2326
S'efrac'
p2327
F0.0012602546450287285
sS'dfrac'
p2328
F0.00012916485737749674
sS'type'
p2329
g50
sS'PRE'
p2330
F6.776419846272037e-06
ssI11
(dp2331
S'efrac'
p2332
F5.769448340674253e-06
sS'dfrac'
p2333
F5.913169810638051e-07
sS'type'
p2334
g50
sS'PRE'
p2335
F1.4202090316602746e-10
ssI12
(dp2336
S'efrac'
p2337
F1.078565270863922e-05
sS'dfrac'
p2338
F1.105433175215822e-06
sS'type'
p2339
g50
sS'PRE'
p2340
F4.963368914371583e-10
ssS'freq'
p2341
F92.9011486613
sI1
(dp2342
S'efrac'
p2343
F0.04045669059463935
sS'dfrac'
p2344
F0.013478318766002825
sS'type'
p2345
g67
sS'PRE'
p2346
F0.006983359505375613
ssS'IPR-energy'
p2347
F4.26661732043586
sS'sumd'
p2348
F1.7890602770326964
sS'sume'
p2349
F2.065579173122116
ssI36
(dp2350
S'IPR-distance'
p2351
F1.7376444639926407
sI2
(dp2352
S'efrac'
p2353
F0.18024863857852705
sS'dfrac'
p2354
F0.05621098859439355
sS'type'
p2355
g7
sS'PRE'
p2356
F0.0712525004860011
ssI3
(dp2357
S'efrac'
p2358
F0.038994056067365855
sS'dfrac'
p2359
F0.04533664406871977
sS'type'
p2360
g13
sS'PRE'
p2361
F0.00333467064942221
ssI4
(dp2362
S'efrac'
p2363
F0.006231390901537745
sS'dfrac'
p2364
F0.007244959356575081
sS'type'
p2365
g13
sS'PRE'
p2366
F8.515812980399598e-05
ssI5
(dp2367
S'efrac'
p2368
F0.006200786194391629
sS'dfrac'
p2369
F0.007209376633087332
sS'type'
p2370
g13
sS'PRE'
p2371
F8.432369667253086e-05
ssI6
(dp2372
S'efrac'
p2373
F0.0580166401064737
sS'dfrac'
p2374
F0.06745335130118697
sS'type'
p2375
g13
sS'PRE'
p2376
F0.00738178295533917
ssI7
(dp2377
S'efrac'
p2378
F0.05478285637502494
sS'dfrac'
p2379
F0.06369357566321208
sS'type'
p2380
g13
sS'PRE'
p2381
F0.006581811931771914
ssI8
(dp2382
S'efrac'
p2383
F0.6445324073887295
sS'dfrac'
p2384
F0.7493689882903188
sS'type'
p2385
g13
sS'PRE'
p2386
F0.9110571922621057
ssI9
(dp2387
S'efrac'
p2388
F1.7717538022859032e-05
sS'dfrac'
p2389
F1.4367354106560783e-06
sS'type'
p2390
S'Pb'
p2391
sS'PRE'
p2392
F6.884348868580647e-10
ssI10
(dp2393
S'efrac'
p2394
F0.00021789937681568412
sS'dfrac'
p2395
F2.2578416233086216e-05
sS'type'
p2396
g50
sS'PRE'
p2397
F1.0412813735641251e-07
ssI11
(dp2398
S'efrac'
p2399
F0.0006727734725653296
sS'dfrac'
p2400
F6.971180788189135e-05
sS'type'
p2401
g50
sS'PRE'
p2402
F9.926447300585203e-07
ssI12
(dp2403
S'efrac'
p2404
F3.591855229444721e-05
sS'dfrac'
p2405
F3.721828102702172e-06
sS'type'
p2406
g50
sS'PRE'
p2407
F2.8293962360871404e-09
ssS'freq'
p2408
F95.7935520809
sI1
(dp2409
S'efrac'
p2410
F0.010048915448251159
sS'dfrac'
p2411
F0.0033846673048781527
sS'type'
p2412
g67
sS'PRE'
p2413
F0.0002214595981848892
ssS'IPR-energy'
p2414
F2.1930883276420268
sS'sumd'
p2415
F1.2687024071212671
sS'sume'
p2416
F1.4809079402994654
ss.